

HI-TECH Software PIC LITE Macro Assembler V9.80 build 6738 
                                                                                               Sat Jul 23 18:22:21 2016

HI-TECH Software Omniscient Code Generator (Lite mode) build 6738
     1  0000                     opt subtitle "HI-TECH Software Omniscient Code Generator (Lite mode) build 6738"
     2                           
     3                           opt pagewidth 120
     4                           
     5                           	opt lm
     6                           
     7                           	processor	16F887
     8                           clrc	macro
     9                           	bcf	3,0
    10  0000                     	endm
    11                           clrz	macro
    12                           	bcf	3,2
    13  0000                     	endm
    14                           setc	macro
    15                           	bsf	3,0
    16  0000                     	endm
    17                           setz	macro
    18                           	bsf	3,2
    19  0000                     	endm
    20                           skipc	macro
    21                           	btfss	3,0
    22  0000                     	endm
    23                           skipz	macro
    24                           	btfss	3,2
    25  0000                     	endm
    26                           skipnc	macro
    27                           	btfsc	3,0
    28  0000                     	endm
    29                           skipnz	macro
    30                           	btfsc	3,2
    31  0000                     	endm
    32  0000                     indf	equ	0
    33  0000                     indf0	equ	0
    34  0002                     pc	equ	2
    35  0002                     pcl	equ	2
    36  0003                     status	equ	3
    37  0004                     fsr	equ	4
    38  0004                     fsr0	equ	4
    39  0001                     c	equ	1
    40  0000                     z	equ	0
    41  000A                     pclath	equ	10
    42                           # 12 "F:\PiROOT_Tech\student_projects\AutomaticRationCardSystem\Main.c"
    43                           	psect config,class=CONFIG,delta=2 ;#
    44                           # 12 "F:\PiROOT_Tech\student_projects\AutomaticRationCardSystem\Main.c"
    45  2007  2CE2               	dw 0x3FFA & 0x3FF7 & 0x3FEF & 0x3CFF & 0x3FFF & 0x2FFF ;#
    46                           # 41 "F:\PiROOT_Tech\student_projects\AutomaticRationCardSystem\Main.c"
    47                           	psect eeprom_data,class=EEDATA,delta=2,space=2 ;#
    48                           # 41 "F:\PiROOT_Tech\student_projects\AutomaticRationCardSystem\Main.c"
    49  0000  000A 0000 0032     	db	10,0,50,10,8,0,0,0 ;#
              000A 0008 0000     
              0000 0000          
    50                           # 42 "F:\PiROOT_Tech\student_projects\AutomaticRationCardSystem\Main.c"
    51                           	psect eeprom_data,class=EEDATA,delta=2,space=2 ;#
    52                           # 42 "F:\PiROOT_Tech\student_projects\AutomaticRationCardSystem\Main.c"
    53  0008  000A 0000 001E     	db	10,0,30,8,6,0,0,0 ;#
              0008 0006 0000     
              0000 0000          
    54                           # 43 "F:\PiROOT_Tech\student_projects\AutomaticRationCardSystem\Main.c"
    55                           	psect eeprom_data,class=EEDATA,delta=2,space=2 ;#
    56                           # 43 "F:\PiROOT_Tech\student_projects\AutomaticRationCardSystem\Main.c"
    57  0010  000A 0000 0014     	db	10,0,20,4,5,0,0,0 ;#
              0004 0005 0000     
              0000 0000          
    58                           # 44 "F:\PiROOT_Tech\student_projects\AutomaticRationCardSystem\Main.c"
    59                           	psect eeprom_data,class=EEDATA,delta=2,space=2 ;#
    60                           # 44 "F:\PiROOT_Tech\student_projects\AutomaticRationCardSystem\Main.c"
    61  0018  000A 0000 00FF     	db	10,0,255,200,200,0,0,0 ;#
              00C8 00C8 0000     
              0000 0000          
    62                           	FNCALL	_main,_uart_init
    63                           	FNCALL	_main,_lcd_init
    64                           	FNCALL	_main,_paramter
    65                           	FNCALL	_main,_SoftWareUart_Init
    66                           	FNCALL	_main,_startup
    67                           	FNCALL	_main,_gsm_init
    68                           	FNCALL	_main,_ReadStock
    69                           	FNCALL	_main,_lcdstring
    70                           	FNCALL	_main,_lcdcmd
    71                           	FNCALL	_main,_RFID_read
    72                           	FNCALL	_main,_strcmp
    73                           	FNCALL	_main,_ReadAmnt
    74                           	FNCALL	_main,_DisplayAmnt
    75                           	FNCALL	_main,_DisplayRise
    76                           	FNCALL	_main,_DisplaySugar
    77                           	FNCALL	_main,_DisplayKerosene
    78                           	FNCALL	_main,___lwdiv
    79                           	FNCALL	_main,_eeprom_write
    80                           	FNCALL	_main,___lwmod
    81                           	FNCALL	_main,___awdiv
    82                           	FNCALL	_main,___awmod
    83                           	FNCALL	_main,_LoadStockToArray
    84                           	FNCALL	_main,_DisplayStock
    85                           	FNCALL	_main,_memcmp
    86                           	FNCALL	_main,_SendStock
    87                           	FNCALL	_startup,_lcdcmd
    88                           	FNCALL	_startup,_lcdstring
    89                           	FNCALL	_DisplayStock,_lcdcmd
    90                           	FNCALL	_DisplayStock,_lcdstring
    91                           	FNCALL	_DisplayStock,_DisplayAmnt
    92                           	FNCALL	_gsm_init,_lcdcmd
    93                           	FNCALL	_gsm_init,_lcdstring
    94                           	FNCALL	_gsm_init,_DelayS
    95                           	FNCALL	_gsm_init,_usartstring
    96                           	FNCALL	_gsm_init,_transmit
    97                           	FNCALL	_gsm_init,_receive
    98                           	FNCALL	_DisplayKerosene,_lcdcmd
    99                           	FNCALL	_DisplayKerosene,___awdiv
   100                           	FNCALL	_DisplayKerosene,_lcddata
   101                           	FNCALL	_DisplayKerosene,___awmod
   102                           	FNCALL	_DisplayRise,_lcdcmd
   103                           	FNCALL	_DisplayRise,___awdiv
   104                           	FNCALL	_DisplayRise,_lcddata
   105                           	FNCALL	_DisplayRise,___awmod
   106                           	FNCALL	_DisplaySugar,_lcdcmd
   107                           	FNCALL	_DisplaySugar,___awdiv
   108                           	FNCALL	_DisplaySugar,_lcddata
   109                           	FNCALL	_DisplaySugar,___awmod
   110                           	FNCALL	_DisplayAmnt,_lcdcmd
   111                           	FNCALL	_DisplayAmnt,___awdiv
   112                           	FNCALL	_DisplayAmnt,_lcddata
   113                           	FNCALL	_DisplayAmnt,___awmod
   114                           	FNCALL	_lcdstring,_lcddata
   115                           	FNCALL	_lcd_init,_lcdport
   116                           	FNCALL	_lcd_init,_lcdcmd
   117                           	FNCALL	_SendStock,_usartstring
   118                           	FNCALL	_SendStock,_transmit
   119                           	FNCALL	_SendStock,_receive
   120                           	FNCALL	_RFID_read,_softreceive
   121                           	FNCALL	_lcddata,_lcdport
   122                           	FNCALL	_lcddata,_enable
   123                           	FNCALL	_lcdcmd,_lcdport
   124                           	FNCALL	_lcdcmd,_enable
   125                           	FNCALL	_LoadStockToArray,___lwdiv
   126                           	FNCALL	_LoadStockToArray,___lwmod
   127                           	FNCALL	_paramter,_eeprom_read
   128                           	FNCALL	_paramter,___wmul
   129                           	FNCALL	_ReadStock,_eeprom_read
   130                           	FNCALL	_ReadStock,___wmul
   131                           	FNCALL	_ReadAmnt,_eeprom_read
   132                           	FNCALL	_ReadAmnt,___wmul
   133                           	FNCALL	_usartstring,_transmit
   134                           	FNCALL	_DelayS,_DelayMs
   135                           	FNROOT	_main
   136                           	FNCALL	_ISR,_gsm_read_line2
   137                           	FNCALL	_gsm_read_line2,i1_receive
   138                           	FNCALL	intlevel1,_ISR
   139                           	global	intlevel1
   140                           	FNROOT	intlevel1
   141                           	global	_c2bal
   142                           	global	_c1bal
   143                           	global	_User1
   144                           	global	_User2
   145                           	global	_User3
   146                           psect	idataBANK0,class=CODE,space=0,delta=2
   147                           global __pidataBANK0
   148  1359                     __pidataBANK0:
   149                           	file	"F:\PiROOT_Tech\student_projects\AutomaticRationCardSystem\Main.c"
   150                           	line	20
   151                           
   152                           ;initializer for _c2bal
   153  1359  34E7               	retlw	0E7h
   154  135A  3403               	retlw	03h
   155                           
   156                           
   157                           ;initializer for _c1bal
   158                           psect	idataCOMMON,class=CODE,space=0,delta=2
   159                           global __pidataCOMMON
   160  0800                     __pidataCOMMON:
   161  0800  34E7               	retlw	0E7h
   162  0801  3403               	retlw	03h
   163                           
   164                           psect	idataBANK0
   165                           	line	38
   166                           
   167                           ;initializer for _User1
   168  135B  3431               	retlw	031h
   169  135C  3443               	retlw	043h
   170  135D  3430               	retlw	030h
   171  135E  3430               	retlw	030h
   172  135F  3438               	retlw	038h
   173  1360  3432               	retlw	032h
   174  1361  3443               	retlw	043h
   175  1362  3445               	retlw	045h
   176  1363  3436               	retlw	036h
   177  1364  3439               	retlw	039h
   178  1365  3433               	retlw	033h
   179  1366  3439               	retlw	039h
   180  1367  3400               	retlw	0
   181                           psect	idataBANK1,class=CODE,space=0,delta=2
   182                           global __pidataBANK1
   183  13D7                     __pidataBANK1:
   184                           	line	39
   185                           
   186                           ;initializer for _User2
   187  13D7  3431               	retlw	031h
   188  13D8  3442               	retlw	042h
   189  13D9  3430               	retlw	030h
   190  13DA  3430               	retlw	030h
   191  13DB  3433               	retlw	033h
   192  13DC  3443               	retlw	043h
   193  13DD  3435               	retlw	035h
   194  13DE  3442               	retlw	042h
   195  13DF  3446               	retlw	046h
   196  13E0  3443               	retlw	043h
   197  13E1  3438               	retlw	038h
   198  13E2  3430               	retlw	030h
   199  13E3  3400               	retlw	0
   200                           	line	40
   201                           
   202                           ;initializer for _User3
   203  13E4  3431               	retlw	031h
   204  13E5  3442               	retlw	042h
   205  13E6  3430               	retlw	030h
   206  13E7  3430               	retlw	030h
   207  13E8  3433               	retlw	033h
   208  13E9  3443               	retlw	043h
   209  13EA  3435               	retlw	035h
   210  13EB  3442               	retlw	042h
   211  13EC  3446               	retlw	046h
   212  13ED  3443               	retlw	043h
   213  13EE  3438               	retlw	038h
   214  13EF  3431               	retlw	031h
   215  13F0  3400               	retlw	0
   216                           	global	_a
   217                           psect	stringtext,class=STRCODE,delta=2,reloc=256
   218                           global __pstringtext
   219  1800                     __pstringtext:
   220                           ;	global	stringtab,__stringbase
   221  1800                     stringtab:
   222                           ;	String table - string pointers are 2 bytes each
   223  1800  1BFF               	btfsc	(btemp+1),7
   224  1801  280A               	ljmp	stringcode
   225  1802  1383               	bcf	status,7
   226  1803  187F               	btfsc	(btemp+1),0
   227  1804  1783               	bsf	status,7
   228  1805  0800               	movf	indf,w
   229  1806  0A84               	incf fsr
   230  1807  1903               skipnz
   231  1808  0AFF               incf btemp+1
   232  1809  0008               	return
   233  180A                     stringcode:
   234  180A  087F               	movf btemp+1,w
   235  180B  397F               andlw 7Fh
   236  180C  008A               movwf	pclath
   237  180D  0804               	movf	fsr,w
   238  180E  0A84               incf fsr
   239  180F  1903               skipnz
   240  1810  0AFF               incf btemp+1
   241  1811  0082               	movwf pc
   242  1812                     __stringbase:
   243                           	file	"F:\PiROOT_Tech\student_projects\AutomaticRationCardSystem\lcd.c"
   244                           	line	1
   245  1812                     _a:
   246  1812  3430               	retlw	030h
   247  1813  3431               	retlw	031h
   248  1814  3432               	retlw	032h
   249  1815  3433               	retlw	033h
   250  1816  3434               	retlw	034h
   251  1817  3435               	retlw	035h
   252  1818  3436               	retlw	036h
   253  1819  3437               	retlw	037h
   254  181A  3438               	retlw	038h
   255  181B  3439               	retlw	039h
   256  181C  3400               	retlw	0
   257                           	global	_digit
   258                           psect	stringtext
   259                           	file	"F:\PiROOT_Tech\student_projects\AutomaticRationCardSystem\Main.c"
   260                           	line	33
   261  181D                     _digit:
   262  181D  3430               	retlw	030h
   263  181E  3431               	retlw	031h
   264  181F  3432               	retlw	032h
   265  1820  3433               	retlw	033h
   266  1821  3434               	retlw	034h
   267  1822  3435               	retlw	035h
   268  1823  3436               	retlw	036h
   269  1824  3437               	retlw	037h
   270  1825  3438               	retlw	038h
   271  1826  3439               	retlw	039h
   272  1827  3400               	retlw	0
   273                           	global	_a
   274                           	global	_digit
   275                           	global	_KeroseneStock
   276                           	global	_RiseStock
   277                           	global	_SugarStock
   278                           	global	_User
   279                           	global	_User1amt
   280                           	global	_User2amt
   281                           	global	_User3amt
   282                           	global	_c1
   283                           	global	_c2
   284                           	global	_User1Kerosene
   285                           	global	_User1Rise
   286                           	global	_User1Sugar
   287                           	global	_User2Kerosene
   288                           	global	_User2Rise
   289                           	global	_User2Sugar
   290                           	global	_User3Kerosene
   291                           	global	_User3Rise
   292                           	global	_User3Sugar
   293                           	global	_delayus_variable
   294                           	global	_i
   295                           	global	_j
   296                           	global	_rfid_flag
   297                           	global	_sms_indication
   298                           	global	_k
   299                           	global	_RiseArray
   300                           	global	_KeroseneArray
   301                           	global	_SugarArray
   302                           	global	_sms
   303                           	global	_card_store
   304                           	global	_INTCON
   305  000B                     _INTCON	set	11
   306                           	global	_PORTC
   307  0007                     _PORTC	set	7
   308                           	global	_PORTD
   309  0008                     _PORTD	set	8
   310                           	global	_RCREG
   311  001A                     _RCREG	set	26
   312                           	global	_RCSTA
   313  0018                     _RCSTA	set	24
   314                           	global	_TXREG
   315  0019                     _TXREG	set	25
   316                           	global	_CARRY
   317  0018                     _CARRY	set	24
   318                           	global	_CREN
   319  00C4                     _CREN	set	196
   320                           	global	_GIE
   321  005F                     _GIE	set	95
   322                           	global	_OERR
   323  00C1                     _OERR	set	193
   324                           	global	_RC0
   325  0038                     _RC0	set	56
   326                           	global	_RC1
   327  0039                     _RC1	set	57
   328                           	global	_RC3
   329  003B                     _RC3	set	59
   330                           	global	_RC4
   331  003C                     _RC4	set	60
   332                           	global	_RCIF
   333  0065                     _RCIF	set	101
   334                           	global	_RD0
   335  0040                     _RD0	set	64
   336                           	global	_RD1
   337  0041                     _RD1	set	65
   338                           	global	_RD2
   339  0042                     _RD2	set	66
   340                           	global	_RD3
   341  0043                     _RD3	set	67
   342                           	global	_RD4
   343  0044                     _RD4	set	68
   344                           	global	_RD5
   345  0045                     _RD5	set	69
   346                           	global	_RD6
   347  0046                     _RD6	set	70
   348                           	global	_RD7
   349  0047                     _RD7	set	71
   350                           	global	_TXIF
   351  0064                     _TXIF	set	100
   352                           	global	_PIE1
   353  008C                     _PIE1	set	140
   354                           	global	_SPBRG
   355  0099                     _SPBRG	set	153
   356                           	global	_TRISC
   357  0087                     _TRISC	set	135
   358                           	global	_TRISD
   359  0088                     _TRISD	set	136
   360                           	global	_TXSTA
   361  0098                     _TXSTA	set	152
   362                           	global	_TRISD0
   363  0440                     _TRISD0	set	1088
   364                           	global	_TRISD1
   365  0441                     _TRISD1	set	1089
   366                           	global	_EEADR
   367  010D                     _EEADR	set	269
   368                           	global	_EEDATA
   369  010C                     _EEDATA	set	268
   370                           	global	_ANSEL
   371  0188                     _ANSEL	set	392
   372                           	global	_ANSELH
   373  0189                     _ANSELH	set	393
   374                           	global	_EECON1
   375  018C                     _EECON1	set	396
   376                           	global	_EECON2
   377  018D                     _EECON2	set	397
   378                           	global	_RD
   379  0C60                     _RD	set	3168
   380                           	global	_WR
   381  0C61                     _WR	set	3169
   382                           	global	_WREN
   383  0C62                     _WREN	set	3170
   384                           	
   385  1828                     STR_12:	
   386  1828  346D               	retlw	109	;'m'
   387  1829  346F               	retlw	111	;'o'
   388  182A  3469               	retlw	105	;'i'
   389  182B  3473               	retlw	115	;'s'
   390  182C  3474               	retlw	116	;'t'
   391  182D  3465               	retlw	101	;'e'
   392  182E  3472               	retlw	114	;'r'
   393  182F  3420               	retlw	32	;' '
   394  1830  346C               	retlw	108	;'l'
   395  1831  3465               	retlw	101	;'e'
   396  1832  3476               	retlw	118	;'v'
   397  1833  3465               	retlw	101	;'e'
   398  1834  346C               	retlw	108	;'l'
   399  1835  3420               	retlw	32	;' '
   400  1836  3468               	retlw	104	;'h'
   401  1837  3469               	retlw	105	;'i'
   402  1838  3467               	retlw	103	;'g'
   403  1839  3468               	retlw	104	;'h'
   404  183A  3420               	retlw	32	;' '
   405  183B  346D               	retlw	109	;'m'
   406  183C  346F               	retlw	111	;'o'
   407  183D  3474               	retlw	116	;'t'
   408  183E  3465               	retlw	101	;'e'
   409  183F  3472               	retlw	114	;'r'
   410  1840  3420               	retlw	32	;' '
   411  1841  344F               	retlw	79	;'O'
   412  1842  3446               	retlw	70	;'F'
   413  1843  3446               	retlw	70	;'F'
   414  1844  3400               	retlw	0
   415                           psect	stringtext
   416                           	
   417  1845                     STR_10:	
   418  1845  346D               	retlw	109	;'m'
   419  1846  346F               	retlw	111	;'o'
   420  1847  3469               	retlw	105	;'i'
   421  1848  3473               	retlw	115	;'s'
   422  1849  3474               	retlw	116	;'t'
   423  184A  3465               	retlw	101	;'e'
   424  184B  3472               	retlw	114	;'r'
   425  184C  3420               	retlw	32	;' '
   426  184D  346C               	retlw	108	;'l'
   427  184E  3465               	retlw	101	;'e'
   428  184F  3476               	retlw	118	;'v'
   429  1850  3465               	retlw	101	;'e'
   430  1851  346C               	retlw	108	;'l'
   431  1852  3420               	retlw	32	;' '
   432  1853  346C               	retlw	108	;'l'
   433  1854  346F               	retlw	111	;'o'
   434  1855  3477               	retlw	119	;'w'
   435  1856  3420               	retlw	32	;' '
   436  1857  346D               	retlw	109	;'m'
   437  1858  346F               	retlw	111	;'o'
   438  1859  3474               	retlw	116	;'t'
   439  185A  3465               	retlw	101	;'e'
   440  185B  3472               	retlw	114	;'r'
   441  185C  3420               	retlw	32	;' '
   442  185D  344F               	retlw	79	;'O'
   443  185E  344E               	retlw	78	;'N'
   444  185F  3400               	retlw	0
   445                           psect	stringtext
   446                           	
   447  1860                     STR_9:	
   448  1860  3441               	retlw	65	;'A'
   449  1861  3454               	retlw	84	;'T'
   450  1862  342B               	retlw	43	;'+'
   451  1863  3443               	retlw	67	;'C'
   452  1864  344D               	retlw	77	;'M'
   453  1865  3447               	retlw	71	;'G'
   454  1866  3453               	retlw	83	;'S'
   455  1867  343D               	retlw	61	;'='
   456  1868  3422               	retlw	34	;'"'
   457  1869  342B               	retlw	43	;'+'
   458  186A  3439               	retlw	57	;'9'
   459  186B  3431               	retlw	49	;'1'
   460  186C  3439               	retlw	57	;'9'
   461  186D  3437               	retlw	55	;'7'
   462  186E  3439               	retlw	57	;'9'
   463  186F  3430               	retlw	48	;'0'
   464  1870  3430               	retlw	48	;'0'
   465  1871  3438               	retlw	56	;'8'
   466  1872  3430               	retlw	48	;'0'
   467  1873  3435               	retlw	53	;'5'
   468  1874  3431               	retlw	49	;'1'
   469  1875  3430               	retlw	48	;'0'
   470  1876  3422               	retlw	34	;'"'
   471  1877  3400               	retlw	0
   472                           psect	stringtext
   473                           	
   474  1878                     STR_27:	
   475  1878  3441               	retlw	65	;'A'
   476  1879  3454               	retlw	84	;'T'
   477  187A  342B               	retlw	43	;'+'
   478  187B  3443               	retlw	67	;'C'
   479  187C  344D               	retlw	77	;'M'
   480  187D  3447               	retlw	71	;'G'
   481  187E  3453               	retlw	83	;'S'
   482  187F  343D               	retlw	61	;'='
   483  1880  3422               	retlw	34	;'"'
   484  1881  342B               	retlw	43	;'+'
   485  1882  3439               	retlw	57	;'9'
   486  1883  3431               	retlw	49	;'1'
   487  1884  3439               	retlw	57	;'9'
   488  1885  3430               	retlw	48	;'0'
   489  1886  3430               	retlw	48	;'0'
   490  1887  3433               	retlw	51	;'3'
   491  1888  3438               	retlw	56	;'8'
   492  1889  3433               	retlw	51	;'3'
   493  188A  3431               	retlw	49	;'1'
   494  188B  3433               	retlw	51	;'3'
   495  188C  3430               	retlw	48	;'0'
   496  188D  3434               	retlw	52	;'4'
   497  188E  3422               	retlw	34	;'"'
   498  188F  3400               	retlw	0
   499                           psect	stringtext
   500                           	
   501  1890                     STR_21:	
   502  1890  3453               	retlw	83	;'S'
   503  1891  3455               	retlw	85	;'U'
   504  1892  3447               	retlw	71	;'G'
   505  1893  3441               	retlw	65	;'A'
   506  1894  3452               	retlw	82	;'R'
   507  1895  343A               	retlw	58	;':'
   508  1896  3420               	retlw	32	;' '
   509  1897  3420               	retlw	32	;' '
   510  1898  3420               	retlw	32	;' '
   511  1899  3420               	retlw	32	;' '
   512  189A  344B               	retlw	75	;'K'
   513  189B  3467               	retlw	103	;'g'
   514  189C  3420               	retlw	32	;' '
   515  189D  3420               	retlw	32	;' '
   516  189E  3420               	retlw	32	;' '
   517  189F  3420               	retlw	32	;' '
   518  18A0  3420               	retlw	32	;' '
   519  18A1  3420               	retlw	32	;' '
   520  18A2  3420               	retlw	32	;' '
   521  18A3  3420               	retlw	32	;' '
   522  18A4  3420               	retlw	32	;' '
   523  18A5  3400               	retlw	0
   524                           psect	stringtext
   525                           	
   526  18A6                     STR_22:	
   527  18A6  344B               	retlw	75	;'K'
   528  18A7  3445               	retlw	69	;'E'
   529  18A8  3452               	retlw	82	;'R'
   530  18A9  344F               	retlw	79	;'O'
   531  18AA  3453               	retlw	83	;'S'
   532  18AB  3445               	retlw	69	;'E'
   533  18AC  344E               	retlw	78	;'N'
   534  18AD  3445               	retlw	69	;'E'
   535  18AE  343A               	retlw	58	;':'
   536  18AF  3420               	retlw	32	;' '
   537  18B0  3420               	retlw	32	;' '
   538  18B1  3420               	retlw	32	;' '
   539  18B2  3420               	retlw	32	;' '
   540  18B3  3420               	retlw	32	;' '
   541  18B4  344C               	retlw	76	;'L'
   542  18B5  3474               	retlw	116	;'t'
   543  18B6  3473               	retlw	115	;'s'
   544  18B7  3420               	retlw	32	;' '
   545  18B8  3420               	retlw	32	;' '
   546  18B9  3420               	retlw	32	;' '
   547  18BA  3420               	retlw	32	;' '
   548  18BB  3400               	retlw	0
   549                           psect	stringtext
   550                           	
   551  18BC                     STR_37:	
   552  18BC  3452               	retlw	82	;'R'
   553  18BD  3449               	retlw	73	;'I'
   554  18BE  3453               	retlw	83	;'S'
   555  18BF  3445               	retlw	69	;'E'
   556  18C0  343A               	retlw	58	;':'
   557  18C1  3420               	retlw	32	;' '
   558  18C2  3420               	retlw	32	;' '
   559  18C3  3420               	retlw	32	;' '
   560  18C4  344B               	retlw	75	;'K'
   561  18C5  3467               	retlw	103	;'g'
   562  18C6  3420               	retlw	32	;' '
   563  18C7  3420               	retlw	32	;' '
   564  18C8  3420               	retlw	32	;' '
   565  18C9  3420               	retlw	32	;' '
   566  18CA  3420               	retlw	32	;' '
   567  18CB  3420               	retlw	32	;' '
   568  18CC  3420               	retlw	32	;' '
   569  18CD  3420               	retlw	32	;' '
   570  18CE  3420               	retlw	32	;' '
   571  18CF  3420               	retlw	32	;' '
   572  18D0  3400               	retlw	0
   573                           psect	stringtext
   574                           	
   575  18D1                     STR_38:	
   576  18D1  3453               	retlw	83	;'S'
   577  18D2  3455               	retlw	85	;'U'
   578  18D3  3447               	retlw	71	;'G'
   579  18D4  3441               	retlw	65	;'A'
   580  18D5  3452               	retlw	82	;'R'
   581  18D6  343A               	retlw	58	;':'
   582  18D7  3420               	retlw	32	;' '
   583  18D8  3420               	retlw	32	;' '
   584  18D9  3420               	retlw	32	;' '
   585  18DA  344B               	retlw	75	;'K'
   586  18DB  3467               	retlw	103	;'g'
   587  18DC  3420               	retlw	32	;' '
   588  18DD  3420               	retlw	32	;' '
   589  18DE  3420               	retlw	32	;' '
   590  18DF  3420               	retlw	32	;' '
   591  18E0  3420               	retlw	32	;' '
   592  18E1  3420               	retlw	32	;' '
   593  18E2  3420               	retlw	32	;' '
   594  18E3  3420               	retlw	32	;' '
   595  18E4  3420               	retlw	32	;' '
   596  18E5  3400               	retlw	0
   597                           psect	stringtext
   598                           	
   599  18E6                     STR_36:	
   600  18E6  3455               	retlw	85	;'U'
   601  18E7  3453               	retlw	83	;'S'
   602  18E8  3445               	retlw	69	;'E'
   603  18E9  3452               	retlw	82	;'R'
   604  18EA  3431               	retlw	49	;'1'
   605  18EB  3420               	retlw	32	;' '
   606  18EC  3441               	retlw	65	;'A'
   607  18ED  344D               	retlw	77	;'M'
   608  18EE  344F               	retlw	79	;'O'
   609  18EF  3455               	retlw	85	;'U'
   610  18F0  344E               	retlw	78	;'N'
   611  18F1  3454               	retlw	84	;'T'
   612  18F2  343A               	retlw	58	;':'
   613  18F3  3420               	retlw	32	;' '
   614  18F4  3420               	retlw	32	;' '
   615  18F5  3420               	retlw	32	;' '
   616  18F6  3420               	retlw	32	;' '
   617  18F7  3420               	retlw	32	;' '
   618  18F8  3420               	retlw	32	;' '
   619  18F9  3420               	retlw	32	;' '
   620  18FA  3400               	retlw	0
   621                           psect	stringtext
   622                           	
   623  18FB                     STR_43:	
   624  18FB  3455               	retlw	85	;'U'
   625  18FC  3453               	retlw	83	;'S'
   626  18FD  3445               	retlw	69	;'E'
   627  18FE  3452               	retlw	82	;'R'
   628  18FF  3432               	retlw	50	;'2'
   629  1900  3420               	retlw	32	;' '
   630  1901  3441               	retlw	65	;'A'
   631  1902  344D               	retlw	77	;'M'
   632  1903  344F               	retlw	79	;'O'
   633  1904  3455               	retlw	85	;'U'
   634  1905  344E               	retlw	78	;'N'
   635  1906  3454               	retlw	84	;'T'
   636  1907  343A               	retlw	58	;':'
   637  1908  3420               	retlw	32	;' '
   638  1909  3420               	retlw	32	;' '
   639  190A  3420               	retlw	32	;' '
   640  190B  3420               	retlw	32	;' '
   641  190C  3420               	retlw	32	;' '
   642  190D  3420               	retlw	32	;' '
   643  190E  3420               	retlw	32	;' '
   644  190F  3400               	retlw	0
   645                           psect	stringtext
   646                           	
   647  1910                     STR_50:	
   648  1910  3455               	retlw	85	;'U'
   649  1911  3453               	retlw	83	;'S'
   650  1912  3445               	retlw	69	;'E'
   651  1913  3452               	retlw	82	;'R'
   652  1914  3433               	retlw	51	;'3'
   653  1915  3420               	retlw	32	;' '
   654  1916  3441               	retlw	65	;'A'
   655  1917  344D               	retlw	77	;'M'
   656  1918  344F               	retlw	79	;'O'
   657  1919  3455               	retlw	85	;'U'
   658  191A  344E               	retlw	78	;'N'
   659  191B  3454               	retlw	84	;'T'
   660  191C  343A               	retlw	58	;':'
   661  191D  3420               	retlw	32	;' '
   662  191E  3420               	retlw	32	;' '
   663  191F  3420               	retlw	32	;' '
   664  1920  3420               	retlw	32	;' '
   665  1921  3420               	retlw	32	;' '
   666  1922  3420               	retlw	32	;' '
   667  1923  3420               	retlw	32	;' '
   668  1924  3400               	retlw	0
   669                           psect	stringtext
   670                           	
   671  1925                     STR_20:	
   672  1925  3452               	retlw	82	;'R'
   673  1926  3449               	retlw	73	;'I'
   674  1927  3453               	retlw	83	;'S'
   675  1928  3445               	retlw	69	;'E'
   676  1929  343A               	retlw	58	;':'
   677  192A  3420               	retlw	32	;' '
   678  192B  3420               	retlw	32	;' '
   679  192C  3420               	retlw	32	;' '
   680  192D  3420               	retlw	32	;' '
   681  192E  3420               	retlw	32	;' '
   682  192F  3420               	retlw	32	;' '
   683  1930  344B               	retlw	75	;'K'
   684  1931  3467               	retlw	103	;'g'
   685  1932  3420               	retlw	32	;' '
   686  1933  3420               	retlw	32	;' '
   687  1934  3420               	retlw	32	;' '
   688  1935  3420               	retlw	32	;' '
   689  1936  3420               	retlw	32	;' '
   690  1937  3420               	retlw	32	;' '
   691  1938  3420               	retlw	32	;' '
   692  1939  3400               	retlw	0
   693                           psect	stringtext
   694                           	
   695  193A                     STR_39:	
   696  193A  344B               	retlw	75	;'K'
   697  193B  3445               	retlw	69	;'E'
   698  193C  3452               	retlw	82	;'R'
   699  193D  344F               	retlw	79	;'O'
   700  193E  3453               	retlw	83	;'S'
   701  193F  3445               	retlw	69	;'E'
   702  1940  344E               	retlw	78	;'N'
   703  1941  3445               	retlw	69	;'E'
   704  1942  343A               	retlw	58	;':'
   705  1943  3420               	retlw	32	;' '
   706  1944  3420               	retlw	32	;' '
   707  1945  3420               	retlw	32	;' '
   708  1946  344C               	retlw	76	;'L'
   709  1947  3474               	retlw	116	;'t'
   710  1948  3473               	retlw	115	;'s'
   711  1949  3420               	retlw	32	;' '
   712  194A  3420               	retlw	32	;' '
   713  194B  3420               	retlw	32	;' '
   714  194C  3420               	retlw	32	;' '
   715  194D  3420               	retlw	32	;' '
   716  194E  3400               	retlw	0
   717                           psect	stringtext
   718                           	
   719  194F                     STR_19:	
   720  194F  3420               	retlw	32	;' '
   721  1950  3420               	retlw	32	;' '
   722  1951  3420               	retlw	32	;' '
   723  1952  3420               	retlw	32	;' '
   724  1953  3453               	retlw	83	;'S'
   725  1954  3454               	retlw	84	;'T'
   726  1955  344F               	retlw	79	;'O'
   727  1956  3443               	retlw	67	;'C'
   728  1957  344B               	retlw	75	;'K'
   729  1958  3420               	retlw	32	;' '
   730  1959  3444               	retlw	68	;'D'
   731  195A  3445               	retlw	69	;'E'
   732  195B  3454               	retlw	84	;'T'
   733  195C  3441               	retlw	65	;'A'
   734  195D  3449               	retlw	73	;'I'
   735  195E  344C               	retlw	76	;'L'
   736  195F  3453               	retlw	83	;'S'
   737  1960  3420               	retlw	32	;' '
   738  1961  3420               	retlw	32	;' '
   739  1962  3420               	retlw	32	;' '
   740  1963  3400               	retlw	0
   741                           psect	stringtext
   742                           	
   743  1964                     STR_14:	
   744  1964  3443               	retlw	67	;'C'
   745  1965  3472               	retlw	114	;'r'
   746  1966  346F               	retlw	111	;'o'
   747  1967  3470               	retlw	112	;'p'
   748  1968  3420               	retlw	32	;' '
   749  1969  3463               	retlw	99	;'c'
   750  196A  3472               	retlw	114	;'r'
   751  196B  346F               	retlw	111	;'o'
   752  196C  3473               	retlw	115	;'s'
   753  196D  3473               	retlw	115	;'s'
   754  196E  3465               	retlw	101	;'e'
   755  196F  3464               	retlw	100	;'d'
   756  1970  3420               	retlw	32	;' '
   757  1971  3473               	retlw	115	;'s'
   758  1972  3474               	retlw	116	;'t'
   759  1973  3461               	retlw	97	;'a'
   760  1974  3467               	retlw	103	;'g'
   761  1975  3465               	retlw	101	;'e'
   762  1976  3431               	retlw	49	;'1'
   763  1977  3400               	retlw	0
   764                           psect	stringtext
   765                           	
   766  1978                     STR_16:	
   767  1978  3443               	retlw	67	;'C'
   768  1979  3472               	retlw	114	;'r'
   769  197A  346F               	retlw	111	;'o'
   770  197B  3470               	retlw	112	;'p'
   771  197C  3420               	retlw	32	;' '
   772  197D  3463               	retlw	99	;'c'
   773  197E  3472               	retlw	114	;'r'
   774  197F  346F               	retlw	111	;'o'
   775  1980  3473               	retlw	115	;'s'
   776  1981  3473               	retlw	115	;'s'
   777  1982  3465               	retlw	101	;'e'
   778  1983  3464               	retlw	100	;'d'
   779  1984  3420               	retlw	32	;' '
   780  1985  3473               	retlw	115	;'s'
   781  1986  3474               	retlw	116	;'t'
   782  1987  3461               	retlw	97	;'a'
   783  1988  3467               	retlw	103	;'g'
   784  1989  3465               	retlw	101	;'e'
   785  198A  3432               	retlw	50	;'2'
   786  198B  3400               	retlw	0
   787                           psect	stringtext
   788                           	
   789  198C                     STR_18:	
   790  198C  3443               	retlw	67	;'C'
   791  198D  3472               	retlw	114	;'r'
   792  198E  346F               	retlw	111	;'o'
   793  198F  3470               	retlw	112	;'p'
   794  1990  3420               	retlw	32	;' '
   795  1991  3463               	retlw	99	;'c'
   796  1992  3472               	retlw	114	;'r'
   797  1993  346F               	retlw	111	;'o'
   798  1994  3473               	retlw	115	;'s'
   799  1995  3473               	retlw	115	;'s'
   800  1996  3465               	retlw	101	;'e'
   801  1997  3464               	retlw	100	;'d'
   802  1998  3420               	retlw	32	;' '
   803  1999  3473               	retlw	115	;'s'
   804  199A  3474               	retlw	116	;'t'
   805  199B  3461               	retlw	97	;'a'
   806  199C  3467               	retlw	103	;'g'
   807  199D  3465               	retlw	101	;'e'
   808  199E  3433               	retlw	51	;'3'
   809  199F  3400               	retlw	0
   810                           psect	stringtext
   811                           	
   812  19A0                     STR_7:	
   813  19A0  3441               	retlw	65	;'A'
   814  19A1  3454               	retlw	84	;'T'
   815  19A2  342B               	retlw	43	;'+'
   816  19A3  3443               	retlw	67	;'C'
   817  19A4  344E               	retlw	78	;'N'
   818  19A5  344D               	retlw	77	;'M'
   819  19A6  3449               	retlw	73	;'I'
   820  19A7  343D               	retlw	61	;'='
   821  19A8  3432               	retlw	50	;'2'
   822  19A9  342C               	retlw	44	;','
   823  19AA  3432               	retlw	50	;'2'
   824  19AB  342C               	retlw	44	;','
   825  19AC  3430               	retlw	48	;'0'
   826  19AD  342C               	retlw	44	;','
   827  19AE  3430               	retlw	48	;'0'
   828  19AF  342C               	retlw	44	;','
   829  19B0  3430               	retlw	48	;'0'
   830  19B1  340D               	retlw	13
   831  19B2  3400               	retlw	0
   832                           psect	stringtext
   833                           	
   834  19B3                     STR_26:	
   835  19B3  3453               	retlw	83	;'S'
   836  19B4  344D               	retlw	77	;'M'
   837  19B5  3441               	retlw	65	;'A'
   838  19B6  3452               	retlw	82	;'R'
   839  19B7  3454               	retlw	84	;'T'
   840  19B8  3420               	retlw	32	;' '
   841  19B9  3443               	retlw	67	;'C'
   842  19BA  3441               	retlw	65	;'A'
   843  19BB  3452               	retlw	82	;'R'
   844  19BC  3444               	retlw	68	;'D'
   845  19BD  3420               	retlw	32	;' '
   846  19BE  3420               	retlw	32	;' '
   847  19BF  3420               	retlw	32	;' '
   848  19C0  3420               	retlw	32	;' '
   849  19C1  3420               	retlw	32	;' '
   850  19C2  3420               	retlw	32	;' '
   851  19C3  3420               	retlw	32	;' '
   852  19C4  3400               	retlw	0
   853                           psect	stringtext
   854                           	
   855  19C5                     STR_42:	
   856  19C5  3420               	retlw	32	;' '
   857  19C6  3420               	retlw	32	;' '
   858  19C7  3420               	retlw	32	;' '
   859  19C8  3420               	retlw	32	;' '
   860  19C9  3420               	retlw	32	;' '
   861  19CA  3420               	retlw	32	;' '
   862  19CB  3456               	retlw	86	;'V'
   863  19CC  344F               	retlw	79	;'O'
   864  19CD  344C               	retlw	76	;'L'
   865  19CE  3455               	retlw	85	;'U'
   866  19CF  3445               	retlw	69	;'E'
   867  19D0  3420               	retlw	32	;' '
   868  19D1  3420               	retlw	32	;' '
   869  19D2  3420               	retlw	32	;' '
   870  19D3  3420               	retlw	32	;' '
   871  19D4  3420               	retlw	32	;' '
   872  19D5  3420               	retlw	32	;' '
   873  19D6  3400               	retlw	0
   874                           psect	stringtext
   875                           	
   876  19D7                     STR_24:	
   877  19D7  3420               	retlw	32	;' '
   878  19D8  3420               	retlw	32	;' '
   879  19D9  3420               	retlw	32	;' '
   880  19DA  3443               	retlw	67	;'C'
   881  19DB  3441               	retlw	65	;'A'
   882  19DC  3452               	retlw	82	;'R'
   883  19DD  3444               	retlw	68	;'D'
   884  19DE  3420               	retlw	32	;' '
   885  19DF  3453               	retlw	83	;'S'
   886  19E0  3459               	retlw	89	;'Y'
   887  19E1  3453               	retlw	83	;'S'
   888  19E2  3454               	retlw	84	;'T'
   889  19E3  3445               	retlw	69	;'E'
   890  19E4  344D               	retlw	77	;'M'
   891  19E5  3420               	retlw	32	;' '
   892  19E6  3420               	retlw	32	;' '
   893  19E7  3420               	retlw	32	;' '
   894  19E8  3400               	retlw	0
   895                           psect	stringtext
   896                           	
   897  19E9                     STR_25:	
   898  19E9  3450               	retlw	80	;'P'
   899  19EA  344C               	retlw	76	;'L'
   900  19EB  3445               	retlw	69	;'E'
   901  19EC  3441               	retlw	65	;'A'
   902  19ED  3453               	retlw	83	;'S'
   903  19EE  3445               	retlw	69	;'E'
   904  19EF  3420               	retlw	32	;' '
   905  19F0  3454               	retlw	84	;'T'
   906  19F1  3441               	retlw	65	;'A'
   907  19F2  3450               	retlw	80	;'P'
   908  19F3  3420               	retlw	32	;' '
   909  19F4  3459               	retlw	89	;'Y'
   910  19F5  344F               	retlw	79	;'O'
   911  19F6  3455               	retlw	85	;'U'
   912  19F7  3452               	retlw	82	;'R'
   913  19F8  3420               	retlw	32	;' '
   914  19F9  3420               	retlw	32	;' '
   915  19FA  3400               	retlw	0
   916                           psect	stringtext
   917                           	
   918  19FB                     STR_41:	
   919  19FB  3420               	retlw	32	;' '
   920  19FC  3443               	retlw	67	;'C'
   921  19FD  3441               	retlw	65	;'A'
   922  19FE  344E               	retlw	78	;'N'
   923  19FF  3420               	retlw	32	;' '
   924  1A00  344F               	retlw	79	;'O'
   925  1A01  344E               	retlw	78	;'N'
   926  1A02  3420               	retlw	32	;' '
   927  1A03  344B               	retlw	75	;'K'
   928  1A04  3445               	retlw	69	;'E'
   929  1A05  3452               	retlw	82	;'R'
   930  1A06  344F               	retlw	79	;'O'
   931  1A07  3453               	retlw	83	;'S'
   932  1A08  3445               	retlw	69	;'E'
   933  1A09  344E               	retlw	78	;'N'
   934  1A0A  3445               	retlw	69	;'E'
   935  1A0B  3420               	retlw	32	;' '
   936  1A0C  3400               	retlw	0
   937                           psect	stringtext
   938                           	
   939  1A0D                     STR_23:	
   940  1A0D  3441               	retlw	65	;'A'
   941  1A0E  3455               	retlw	85	;'U'
   942  1A0F  3454               	retlw	84	;'T'
   943  1A10  344F               	retlw	79	;'O'
   944  1A11  344D               	retlw	77	;'M'
   945  1A12  3441               	retlw	65	;'A'
   946  1A13  3454               	retlw	84	;'T'
   947  1A14  3449               	retlw	73	;'I'
   948  1A15  3443               	retlw	67	;'C'
   949  1A16  3420               	retlw	32	;' '
   950  1A17  3452               	retlw	82	;'R'
   951  1A18  3441               	retlw	65	;'A'
   952  1A19  3454               	retlw	84	;'T'
   953  1A1A  3449               	retlw	73	;'I'
   954  1A1B  344F               	retlw	79	;'O'
   955  1A1C  344E               	retlw	78	;'N'
   956  1A1D  3420               	retlw	32	;' '
   957  1A1E  3400               	retlw	0
   958                           psect	stringtext
   959                           	
   960  1A1F                     STR_40:	
   961  1A1F  3420               	retlw	32	;' '
   962  1A20  3450               	retlw	80	;'P'
   963  1A21  344C               	retlw	76	;'L'
   964  1A22  3445               	retlw	69	;'E'
   965  1A23  3441               	retlw	65	;'A'
   966  1A24  3453               	retlw	83	;'S'
   967  1A25  3445               	retlw	69	;'E'
   968  1A26  3420               	retlw	32	;' '
   969  1A27  344B               	retlw	75	;'K'
   970  1A28  3445               	retlw	69	;'E'
   971  1A29  3445               	retlw	69	;'E'
   972  1A2A  3450               	retlw	80	;'P'
   973  1A2B  3420               	retlw	32	;' '
   974  1A2C  3459               	retlw	89	;'Y'
   975  1A2D  344F               	retlw	79	;'O'
   976  1A2E  3455               	retlw	85	;'U'
   977  1A2F  3452               	retlw	82	;'R'
   978  1A30  3400               	retlw	0
   979                           psect	stringtext
   980                           	
   981  1A31                     STR_2:	
   982  1A31  3450               	retlw	80	;'P'
   983  1A32  344C               	retlw	76	;'L'
   984  1A33  3453               	retlw	83	;'S'
   985  1A34  3420               	retlw	32	;' '
   986  1A35  3457               	retlw	87	;'W'
   987  1A36  3441               	retlw	65	;'A'
   988  1A37  3449               	retlw	73	;'I'
   989  1A38  3454               	retlw	84	;'T'
   990  1A39  342E               	retlw	46	;'.'
   991  1A3A  342E               	retlw	46	;'.'
   992  1A3B  342E               	retlw	46	;'.'
   993  1A3C  342E               	retlw	46	;'.'
   994  1A3D  342E               	retlw	46	;'.'
   995  1A3E  342E               	retlw	46	;'.'
   996  1A3F  342E               	retlw	46	;'.'
   997  1A40  342E               	retlw	46	;'.'
   998  1A41  3400               	retlw	0
   999                           psect	stringtext
  1000                           	
  1001  1A42                     STR_1:	
  1002  1A42  3447               	retlw	71	;'G'
  1003  1A43  3453               	retlw	83	;'S'
  1004  1A44  344D               	retlw	77	;'M'
  1005  1A45  3420               	retlw	32	;' '
  1006  1A46  3449               	retlw	73	;'I'
  1007  1A47  344E               	retlw	78	;'N'
  1008  1A48  3449               	retlw	73	;'I'
  1009  1A49  3454               	retlw	84	;'T'
  1010  1A4A  3449               	retlw	73	;'I'
  1011  1A4B  3441               	retlw	65	;'A'
  1012  1A4C  344C               	retlw	76	;'L'
  1013  1A4D  3449               	retlw	73	;'I'
  1014  1A4E  345A               	retlw	90	;'Z'
  1015  1A4F  3449               	retlw	73	;'I'
  1016  1A50  344E               	retlw	78	;'N'
  1017  1A51  3447               	retlw	71	;'G'
  1018  1A52  3400               	retlw	0
  1019                           psect	stringtext
  1020                           	
  1021  1A53                     STR_32:	
  1022  1A53  344B               	retlw	75	;'K'
  1023  1A54  3465               	retlw	101	;'e'
  1024  1A55  3472               	retlw	114	;'r'
  1025  1A56  346F               	retlw	111	;'o'
  1026  1A57  3473               	retlw	115	;'s'
  1027  1A58  3465               	retlw	101	;'e'
  1028  1A59  346E               	retlw	110	;'n'
  1029  1A5A  3465               	retlw	101	;'e'
  1030  1A5B  3420               	retlw	32	;' '
  1031  1A5C  3453               	retlw	83	;'S'
  1032  1A5D  3474               	retlw	116	;'t'
  1033  1A5E  346F               	retlw	111	;'o'
  1034  1A5F  3463               	retlw	99	;'c'
  1035  1A60  346B               	retlw	107	;'k'
  1036  1A61  343A               	retlw	58	;':'
  1037  1A62  3400               	retlw	0
  1038                           psect	stringtext
  1039                           	
  1040  1A63                     STR_30:	
  1041  1A63  3453               	retlw	83	;'S'
  1042  1A64  3475               	retlw	117	;'u'
  1043  1A65  3467               	retlw	103	;'g'
  1044  1A66  3461               	retlw	97	;'a'
  1045  1A67  3472               	retlw	114	;'r'
  1046  1A68  3420               	retlw	32	;' '
  1047  1A69  3453               	retlw	83	;'S'
  1048  1A6A  3474               	retlw	116	;'t'
  1049  1A6B  346F               	retlw	111	;'o'
  1050  1A6C  3463               	retlw	99	;'c'
  1051  1A6D  346B               	retlw	107	;'k'
  1052  1A6E  343A               	retlw	58	;':'
  1053  1A6F  3400               	retlw	0
  1054                           psect	stringtext
  1055                           	
  1056  1A70                     STR_28:	
  1057  1A70  3452               	retlw	82	;'R'
  1058  1A71  3469               	retlw	105	;'i'
  1059  1A72  3473               	retlw	115	;'s'
  1060  1A73  3465               	retlw	101	;'e'
  1061  1A74  3420               	retlw	32	;' '
  1062  1A75  3453               	retlw	83	;'S'
  1063  1A76  3474               	retlw	116	;'t'
  1064  1A77  346F               	retlw	111	;'o'
  1065  1A78  3463               	retlw	99	;'c'
  1066  1A79  346B               	retlw	107	;'k'
  1067  1A7A  343A               	retlw	58	;':'
  1068  1A7B  3400               	retlw	0
  1069                           psect	stringtext
  1070                           	
  1071  1A7C                     STR_6:	
  1072  1A7C  3441               	retlw	65	;'A'
  1073  1A7D  3454               	retlw	84	;'T'
  1074  1A7E  342B               	retlw	43	;'+'
  1075  1A7F  3443               	retlw	67	;'C'
  1076  1A80  344D               	retlw	77	;'M'
  1077  1A81  3447               	retlw	71	;'G'
  1078  1A82  3446               	retlw	70	;'F'
  1079  1A83  343D               	retlw	61	;'='
  1080  1A84  3431               	retlw	49	;'1'
  1081  1A85  340D               	retlw	13
  1082  1A86  3400               	retlw	0
  1083                           psect	stringtext
  1084                           	
  1085  1A87                     STR_5:	
  1086  1A87  3441               	retlw	65	;'A'
  1087  1A88  3454               	retlw	84	;'T'
  1088  1A89  342B               	retlw	43	;'+'
  1089  1A8A  3443               	retlw	67	;'C'
  1090  1A8B  3453               	retlw	83	;'S'
  1091  1A8C  3444               	retlw	68	;'D'
  1092  1A8D  3448               	retlw	72	;'H'
  1093  1A8E  343D               	retlw	61	;'='
  1094  1A8F  3431               	retlw	49	;'1'
  1095  1A90  340D               	retlw	13
  1096  1A91  3400               	retlw	0
  1097                           psect	stringtext
  1098                           	
  1099  1A92                     STR_4:	
  1100  1A92  3441               	retlw	65	;'A'
  1101  1A93  3454               	retlw	84	;'T'
  1102  1A94  342B               	retlw	43	;'+'
  1103  1A95  3443               	retlw	67	;'C'
  1104  1A96  3450               	retlw	80	;'P'
  1105  1A97  3449               	retlw	73	;'I'
  1106  1A98  344E               	retlw	78	;'N'
  1107  1A99  343F               	retlw	63	;'?'
  1108  1A9A  340D               	retlw	13
  1109  1A9B  3400               	retlw	0
  1110                           psect	stringtext
  1111                           	
  1112  1A9C                     STR_8:	
  1113  1A9C  3447               	retlw	71	;'G'
  1114  1A9D  3453               	retlw	83	;'S'
  1115  1A9E  344D               	retlw	77	;'M'
  1116  1A9F  3420               	retlw	32	;' '
  1117  1AA0  3452               	retlw	82	;'R'
  1118  1AA1  3445               	retlw	69	;'E'
  1119  1AA2  3441               	retlw	65	;'A'
  1120  1AA3  3444               	retlw	68	;'D'
  1121  1AA4  3459               	retlw	89	;'Y'
  1122  1AA5  3400               	retlw	0
  1123                           psect	stringtext
  1124                           	
  1125  1AA6                     STR_57:	
  1126  1AA6  3453               	retlw	83	;'S'
  1127  1AA7  3454               	retlw	84	;'T'
  1128  1AA8  344F               	retlw	79	;'O'
  1129  1AA9  3443               	retlw	67	;'C'
  1130  1AAA  344B               	retlw	75	;'K'
  1131  1AAB  3400               	retlw	0
  1132                           psect	stringtext
  1133                           	
  1134  1AAC                     STR_29:	
  1135  1AAC  3420               	retlw	32	;' '
  1136  1AAD  344B               	retlw	75	;'K'
  1137  1AAE  3467               	retlw	103	;'g'
  1138  1AAF  3473               	retlw	115	;'s'
  1139  1AB0  3400               	retlw	0
  1140                           psect	stringtext
  1141                           	
  1142  1AB1                     STR_33:	
  1143  1AB1  3420               	retlw	32	;' '
  1144  1AB2  344C               	retlw	76	;'L'
  1145  1AB3  3474               	retlw	116	;'t'
  1146  1AB4  3473               	retlw	115	;'s'
  1147  1AB5  3400               	retlw	0
  1148                           psect	stringtext
  1149                           	
  1150  1AB6                     STR_3:	
  1151  1AB6  3441               	retlw	65	;'A'
  1152  1AB7  3454               	retlw	84	;'T'
  1153  1AB8  340D               	retlw	13
  1154  1AB9  3400               	retlw	0
  1155                           psect	stringtext
  1156  1AAC                     STR_31	equ	STR_29+0
  1157  1A1F                     STR_47	equ	STR_40+0
  1158  1A1F                     STR_54	equ	STR_40+0
  1159  1860                     STR_11	equ	STR_9+0
  1160  1860                     STR_13	equ	STR_9+0
  1161  1860                     STR_15	equ	STR_9+0
  1162  1860                     STR_17	equ	STR_9+0
  1163  19FB                     STR_48	equ	STR_41+0
  1164  19FB                     STR_55	equ	STR_41+0
  1165  19E9                     STR_34	equ	STR_25+0
  1166  193A                     STR_46	equ	STR_39+0
  1167  193A                     STR_53	equ	STR_39+0
  1168  19C5                     STR_49	equ	STR_42+0
  1169  19C5                     STR_56	equ	STR_42+0
  1170  19B3                     STR_35	equ	STR_26+0
  1171  18D1                     STR_45	equ	STR_38+0
  1172  18D1                     STR_52	equ	STR_38+0
  1173  18BC                     STR_44	equ	STR_37+0
  1174  18BC                     STR_51	equ	STR_37+0
  1175                           	file	"RationCard.as"
  1176                           	line	#
  1177                           psect cinit,class=CODE,delta=2
  1178                           global start_initialization
  1179  1604                     start_initialization:
  1180                           
  1181                           psect	bitbssCOMMON,class=COMMON,bit,space=1
  1182                           global __pbitbssCOMMON
  1183  03D8                     __pbitbssCOMMON:
  1184  03D8                     _rfid_flag:
  1185  03D8                            ds      1
  1186                           
  1187  03D9                     _sms_indication:
  1188  03D9                            ds      1
  1189                           
  1190                           psect	bssCOMMON,class=COMMON,space=1
  1191                           global __pbssCOMMON
  1192  0078                     __pbssCOMMON:
  1193  0078                     _delayus_variable:
  1194  0078                            ds      1
  1195                           
  1196  0079                     _i:
  1197  0079                            ds      1
  1198                           
  1199  007A                     _j:
  1200  007A                            ds      1
  1201                           
  1202                           psect	dataCOMMON,class=COMMON,space=1
  1203                           global __pdataCOMMON
  1204  007C                     __pdataCOMMON:
  1205                           	file	"F:\PiROOT_Tech\student_projects\AutomaticRationCardSystem\Main.c"
  1206                           	line	20
  1207  007C                     _c1bal:
  1208  007C                            ds      2
  1209                           
  1210                           psect	bssBANK0,class=BANK0,space=1
  1211                           global __pbssBANK0
  1212  0020                     __pbssBANK0:
  1213  0020                     _KeroseneStock:
  1214  0020                            ds      2
  1215                           
  1216  0022                     _RiseStock:
  1217  0022                            ds      2
  1218                           
  1219  0024                     _SugarStock:
  1220  0024                            ds      2
  1221                           
  1222  0026                     _User:
  1223  0026                            ds      2
  1224                           
  1225  0028                     _User1amt:
  1226  0028                            ds      2
  1227                           
  1228  002A                     _User2amt:
  1229  002A                            ds      2
  1230                           
  1231  002C                     _User3amt:
  1232  002C                            ds      2
  1233                           
  1234  002E                     _c1:
  1235  002E                            ds      2
  1236                           
  1237  0030                     _c2:
  1238  0030                            ds      2
  1239                           
  1240  0032                     _User1Kerosene:
  1241  0032                            ds      1
  1242                           
  1243  0033                     _User1Rise:
  1244  0033                            ds      1
  1245                           
  1246  0034                     _User1Sugar:
  1247  0034                            ds      1
  1248                           
  1249  0035                     _User2Kerosene:
  1250  0035                            ds      1
  1251                           
  1252  0036                     _User2Rise:
  1253  0036                            ds      1
  1254                           
  1255  0037                     _User2Sugar:
  1256  0037                            ds      1
  1257                           
  1258  0038                     _User3Kerosene:
  1259  0038                            ds      1
  1260                           
  1261  0039                     _User3Rise:
  1262  0039                            ds      1
  1263                           
  1264  003A                     _User3Sugar:
  1265  003A                            ds      1
  1266                           
  1267  003B                     _RiseArray:
  1268  003B                            ds      5
  1269                           
  1270  0040                     _KeroseneArray:
  1271  0040                            ds      4
  1272                           
  1273  0044                     _SugarArray:
  1274  0044                            ds      4
  1275                           
  1276                           psect	dataBANK0,class=BANK0,space=1
  1277                           global __pdataBANK0
  1278  0060                     __pdataBANK0:
  1279                           	file	"F:\PiROOT_Tech\student_projects\AutomaticRationCardSystem\Main.c"
  1280  0060                     _c2bal:
  1281  0060                            ds      2
  1282                           
  1283                           psect	dataBANK0
  1284                           	file	"F:\PiROOT_Tech\student_projects\AutomaticRationCardSystem\Main.c"
  1285                           	line	38
  1286  0062                     _User1:
  1287  0062                            ds      13
  1288                           
  1289                           psect	bssBANK1,class=BANK1,space=1
  1290                           global __pbssBANK1
  1291  00A0                     __pbssBANK1:
  1292  00A0                     _k:
  1293  00A0                            ds      15
  1294                           
  1295  00AF                     _sms:
  1296  00AF                            ds      20
  1297                           
  1298  00C3                     _card_store:
  1299  00C3                            ds      15
  1300                           
  1301                           psect	dataBANK1,class=BANK1,space=1
  1302                           global __pdataBANK1
  1303  00D2                     __pdataBANK1:
  1304                           	file	"F:\PiROOT_Tech\student_projects\AutomaticRationCardSystem\Main.c"
  1305                           	line	39
  1306  00D2                     _User2:
  1307  00D2                            ds      13
  1308                           
  1309                           psect	dataBANK1
  1310                           	file	"F:\PiROOT_Tech\student_projects\AutomaticRationCardSystem\Main.c"
  1311                           	line	40
  1312  00DF                     _User3:
  1313  00DF                            ds      13
  1314                           
  1315                           psect clrtext,class=CODE,delta=2
  1316                           global clear_ram
  1317                           ;	Called with FSR containing the base address, and
  1318                           ;	W with the last address+1
  1319  1345                     clear_ram:
  1320  1345  0064               	clrwdt			;clear the watchdog before getting into this loop
  1321  1346                     clrloop:
  1322  1346  0180               	clrf	indf		;clear RAM location pointed to by FSR
  1323  1347  0A84               	incf	fsr,f		;increment pointer
  1324  1348  0604               	xorwf	fsr,w		;XOR with final address
  1325  1349  1903               	btfsc	status,2	;have we reached the end yet?
  1326  134A  3400               	retlw	0		;all done for this memory range, return
  1327  134B  0604               	xorwf	fsr,w		;XOR again to restore value
  1328  134C  2B46               	goto	clrloop		;do the next byte
  1329                           
  1330                           ; Clear objects allocated to BITCOMMON
  1331                           psect cinit,class=CODE,delta=2
  1332  1604  01FB               	clrf	((__pbitbssCOMMON/8)+0)&07Fh
  1333                           ; Clear objects allocated to COMMON
  1334                           psect cinit,class=CODE,delta=2
  1335  1605  01F8               	clrf	((__pbssCOMMON)+0)&07Fh
  1336  1606  01F9               	clrf	((__pbssCOMMON)+1)&07Fh
  1337  1607  01FA               	clrf	((__pbssCOMMON)+2)&07Fh
  1338                           ; Clear objects allocated to BANK0
  1339                           psect cinit,class=CODE,delta=2
  1340  1608  1383               	bcf	status, 7	;select IRP bank0
  1341  1609  3020               	movlw	low(__pbssBANK0)
  1342  160A  0084               	movwf	fsr
  1343  160B  3048               	movlw	low((__pbssBANK0)+028h)
  1344  160C  160A  118A  2345   	fcall	clear_ram
              160A  118A         
  1345                           ; Clear objects allocated to BANK1
  1346                           psect cinit,class=CODE,delta=2
  1347  1611  30A0               	movlw	low(__pbssBANK1)
  1348  1612  0084               	movwf	fsr
  1349  1613  30D2               	movlw	low((__pbssBANK1)+032h)
  1350  1614  160A  118A  2345   	fcall	clear_ram
              160A  118A         
  1351                           global btemp
  1352                           psect inittext,class=CODE,delta=2
  1353                           global init_fetch,btemp
  1354                           ;	Called with low address in FSR and high address in W
  1355  1389                     init_fetch:
  1356  1389  087E               	movf btemp,w
  1357  138A  008A               	movwf pclath
  1358  138B  087F               	movf btemp+1,w
  1359  138C  0082               	movwf pc
  1360                           global init_ram
  1361                           ;Called with:
  1362                           ;	high address of idata address in btemp 
  1363                           ;	low address of idata address in btemp+1 
  1364                           ;	low address of data in FSR
  1365                           ;	high address + 1 of data in btemp-1
  1366  138D                     init_ram:
  1367  138D  2389  160A  118A   	fcall init_fetch
  1368  1390  0080               	movwf indf,f
  1369  1391  0A84               	incf fsr,f
  1370  1392  0804               	movf fsr,w
  1371  1393  067D               	xorwf btemp-1,w
  1372  1394  1903               	btfsc status,2
  1373  1395  3400               	retlw 0
  1374  1396  0AFF               	incf btemp+1,f
  1375  1397  1903               	btfsc status,2
  1376  1398  0AFE               	incf btemp,f
  1377  1399  2B8D               	goto init_ram
  1378                           ; Initialize objects allocated to BANK1
  1379                           psect cinit,class=CODE,delta=2
  1380                           global init_ram, __pidataBANK1
  1381  1619  30EC               	movlw low(__pdataBANK1+26)
  1382  161A  00FD               	movwf btemp-1,f
  1383  161B  3013               	movlw high(__pidataBANK1)
  1384  161C  00FE               	movwf btemp,f
  1385  161D  30D7               	movlw low(__pidataBANK1)
  1386  161E  00FF               	movwf btemp+1,f
  1387  161F  30D2               	movlw low(__pdataBANK1)
  1388  1620  0084               	movwf fsr,f
  1389  1621  160A  118A  238D   	fcall init_ram
              160A  118A         
  1390                           ; Initialize objects allocated to BANK0
  1391                           psect cinit,class=CODE,delta=2
  1392                           global init_ram, __pidataBANK0
  1393  1626  306F               	movlw low(__pdataBANK0+15)
  1394  1627  00FD               	movwf btemp-1,f
  1395  1628  3013               	movlw high(__pidataBANK0)
  1396  1629  00FE               	movwf btemp,f
  1397  162A  3059               	movlw low(__pidataBANK0)
  1398  162B  00FF               	movwf btemp+1,f
  1399  162C  3060               	movlw low(__pdataBANK0)
  1400  162D  0084               	movwf fsr,f
  1401  162E  160A  118A  238D   	fcall init_ram
              160A  118A         
  1402                           ; Initialize objects allocated to COMMON
  1403                           	global __pidataCOMMON
  1404                           psect cinit,class=CODE,delta=2
  1405  1633  120A  158A  2000   	fcall	__pidataCOMMON+0		;fetch initializer
              160A  118A         
  1406  1638  00FC               	movwf	__pdataCOMMON+0&07fh		
  1407  1639  120A  158A  2001   	fcall	__pidataCOMMON+1		;fetch initializer
              160A  118A         
  1408  163E  00FD               	movwf	__pdataCOMMON+1&07fh		
  1409                           psect cinit,class=CODE,delta=2
  1410                           global end_of_initialization
  1411                           
  1412                           ;End of C runtime variable initialization code
  1413                           
  1414  163F                     end_of_initialization:
  1415  163F  0183               clrf status
  1416  1640  120A  118A  2815   ljmp _main	;jump to C main() function
  1417                           psect	cstackCOMMON,class=COMMON,space=1
  1418                           global __pcstackCOMMON
  1419  0070                     __pcstackCOMMON:
  1420                           	global	?_DelayMs
  1421  0070                     ?_DelayMs:	; 0 bytes @ 0x0
  1422                           	global	?_DelayS
  1423  0070                     ?_DelayS:	; 0 bytes @ 0x0
  1424                           	global	?_lcdport
  1425  0070                     ?_lcdport:	; 0 bytes @ 0x0
  1426                           	global	?_lcdcmd
  1427  0070                     ?_lcdcmd:	; 0 bytes @ 0x0
  1428                           	global	?_lcddata
  1429  0070                     ?_lcddata:	; 0 bytes @ 0x0
  1430                           	global	?_lcd_init
  1431  0070                     ?_lcd_init:	; 0 bytes @ 0x0
  1432                           	global	?_SoftWareUart_Init
  1433  0070                     ?_SoftWareUart_Init:	; 0 bytes @ 0x0
  1434                           	global	?_transmit
  1435  0070                     ?_transmit:	; 0 bytes @ 0x0
  1436                           	global	?_gsm_init
  1437  0070                     ?_gsm_init:	; 0 bytes @ 0x0
  1438                           	global	?_gsm_read_line2
  1439  0070                     ?_gsm_read_line2:	; 0 bytes @ 0x0
  1440                           	global	??_gsm_read_line2
  1441  0070                     ??_gsm_read_line2:	; 0 bytes @ 0x0
  1442                           	global	?_ISR
  1443  0070                     ?_ISR:	; 0 bytes @ 0x0
  1444                           	global	?_RFID_read
  1445  0070                     ?_RFID_read:	; 0 bytes @ 0x0
  1446                           	global	?_ReadAmnt
  1447  0070                     ?_ReadAmnt:	; 0 bytes @ 0x0
  1448                           	global	?_ReadStock
  1449  0070                     ?_ReadStock:	; 0 bytes @ 0x0
  1450                           	global	?_DisplayStock
  1451  0070                     ?_DisplayStock:	; 0 bytes @ 0x0
  1452                           	global	?_uart_init
  1453  0070                     ?_uart_init:	; 0 bytes @ 0x0
  1454                           	global	?_paramter
  1455  0070                     ?_paramter:	; 0 bytes @ 0x0
  1456                           	global	?_startup
  1457  0070                     ?_startup:	; 0 bytes @ 0x0
  1458                           	global	?_LoadStockToArray
  1459  0070                     ?_LoadStockToArray:	; 0 bytes @ 0x0
  1460                           	global	?_SendStock
  1461  0070                     ?_SendStock:	; 0 bytes @ 0x0
  1462                           	global	?_main
  1463  0070                     ?_main:	; 0 bytes @ 0x0
  1464                           	global	??i1_receive
  1465  0070                     ??i1_receive:	; 0 bytes @ 0x0
  1466                           	global	?_eeprom_read
  1467  0070                     ?_eeprom_read:	; 1 bytes @ 0x0
  1468                           	global	?_softreceive
  1469  0070                     ?_softreceive:	; 1 bytes @ 0x0
  1470                           	global	?_receive
  1471  0070                     ?_receive:	; 1 bytes @ 0x0
  1472                           	global	?i1_receive
  1473  0070                     ?i1_receive:	; 1 bytes @ 0x0
  1474                           	global	?_enable
  1475  0070                     ?_enable:	; 2 bytes @ 0x0
  1476  0070                     	ds	1
  1477                           	global	gsm_read_line2@flag
  1478  0071                     gsm_read_line2@flag:	; 1 bytes @ 0x1
  1479  0071                     	ds	1
  1480                           	global	gsm_read_line2@buffer
  1481  0072                     gsm_read_line2@buffer:	; 1 bytes @ 0x2
  1482  0072                     	ds	1
  1483                           	global	gsm_read_line2@rec_data
  1484  0073                     gsm_read_line2@rec_data:	; 1 bytes @ 0x3
  1485  0073                     	ds	1
  1486                           	global	??_ISR
  1487  0074                     ??_ISR:	; 0 bytes @ 0x4
  1488  0074                     	ds	4
  1489                           psect	cstackBANK0,class=BANK0,space=1
  1490                           global __pcstackBANK0
  1491  0048                     __pcstackBANK0:
  1492                           	global	??_eeprom_read
  1493  0048                     ??_eeprom_read:	; 0 bytes @ 0x0
  1494                           	global	??_DelayMs
  1495  0048                     ??_DelayMs:	; 0 bytes @ 0x0
  1496                           	global	??_enable
  1497  0048                     ??_enable:	; 0 bytes @ 0x0
  1498                           	global	??_lcdport
  1499  0048                     ??_lcdport:	; 0 bytes @ 0x0
  1500                           	global	??_SoftWareUart_Init
  1501  0048                     ??_SoftWareUart_Init:	; 0 bytes @ 0x0
  1502                           	global	??_softreceive
  1503  0048                     ??_softreceive:	; 0 bytes @ 0x0
  1504                           	global	??_receive
  1505  0048                     ??_receive:	; 0 bytes @ 0x0
  1506                           	global	??_transmit
  1507  0048                     ??_transmit:	; 0 bytes @ 0x0
  1508                           	global	??_uart_init
  1509  0048                     ??_uart_init:	; 0 bytes @ 0x0
  1510                           	global	?_strcmp
  1511  0048                     ?_strcmp:	; 2 bytes @ 0x0
  1512                           	global	?_memcmp
  1513  0048                     ?_memcmp:	; 2 bytes @ 0x0
  1514                           	global	?___lwmod
  1515  0048                     ?___lwmod:	; 2 bytes @ 0x0
  1516                           	global	?___awmod
  1517  0048                     ?___awmod:	; 2 bytes @ 0x0
  1518                           	global	lcdport@a
  1519  0048                     lcdport@a:	; 1 bytes @ 0x0
  1520                           	global	transmit@data
  1521  0048                     transmit@data:	; 1 bytes @ 0x0
  1522                           	global	strcmp@s2
  1523  0048                     strcmp@s2:	; 1 bytes @ 0x0
  1524                           	global	memcmp@s1
  1525  0048                     memcmp@s1:	; 2 bytes @ 0x0
  1526                           	global	___lwmod@divisor
  1527  0048                     ___lwmod@divisor:	; 2 bytes @ 0x0
  1528                           	global	___awmod@divisor
  1529  0048                     ___awmod@divisor:	; 2 bytes @ 0x0
  1530  0048                     	ds	1
  1531                           	global	?_usartstring
  1532  0049                     ?_usartstring:	; 0 bytes @ 0x1
  1533                           	global	DelayMs@cnt
  1534  0049                     DelayMs@cnt:	; 1 bytes @ 0x1
  1535                           	global	usartstring@st
  1536  0049                     usartstring@st:	; 2 bytes @ 0x1
  1537  0049                     	ds	1
  1538                           	global	??_strcmp
  1539  004A                     ??_strcmp:	; 0 bytes @ 0x2
  1540                           	global	??_lcdcmd
  1541  004A                     ??_lcdcmd:	; 0 bytes @ 0x2
  1542                           	global	??_lcddata
  1543  004A                     ??_lcddata:	; 0 bytes @ 0x2
  1544                           	global	DelayMs@i
  1545  004A                     DelayMs@i:	; 1 bytes @ 0x2
  1546                           	global	softreceive@Data
  1547  004A                     softreceive@Data:	; 1 bytes @ 0x2
  1548                           	global	memcmp@s2
  1549  004A                     memcmp@s2:	; 1 bytes @ 0x2
  1550                           	global	___lwmod@dividend
  1551  004A                     ___lwmod@dividend:	; 2 bytes @ 0x2
  1552                           	global	___awmod@dividend
  1553  004A                     ___awmod@dividend:	; 2 bytes @ 0x2
  1554  004A                     	ds	1
  1555                           	global	??_DelayS
  1556  004B                     ??_DelayS:	; 0 bytes @ 0x3
  1557                           	global	??_usartstring
  1558  004B                     ??_usartstring:	; 0 bytes @ 0x3
  1559                           	global	??_SendStock
  1560  004B                     ??_SendStock:	; 0 bytes @ 0x3
  1561                           	global	softreceive@mask
  1562  004B                     softreceive@mask:	; 1 bytes @ 0x3
  1563                           	global	SendStock@d
  1564  004B                     SendStock@d:	; 1 bytes @ 0x3
  1565                           	global	eeprom_read@addr
  1566  004B                     eeprom_read@addr:	; 1 bytes @ 0x3
  1567                           	global	memcmp@n
  1568  004B                     memcmp@n:	; 2 bytes @ 0x3
  1569  004B                     	ds	1
  1570                           	global	??_RFID_read
  1571  004C                     ??_RFID_read:	; 0 bytes @ 0x4
  1572                           	global	??___lwmod
  1573  004C                     ??___lwmod:	; 0 bytes @ 0x4
  1574                           	global	??___awmod
  1575  004C                     ??___awmod:	; 0 bytes @ 0x4
  1576                           	global	?___wmul
  1577  004C                     ?___wmul:	; 2 bytes @ 0x4
  1578                           	global	DelayS@cnt
  1579  004C                     DelayS@cnt:	; 1 bytes @ 0x4
  1580                           	global	lcdcmd@y
  1581  004C                     lcdcmd@y:	; 1 bytes @ 0x4
  1582                           	global	lcddata@y
  1583  004C                     lcddata@y:	; 1 bytes @ 0x4
  1584                           	global	strcmp@r
  1585  004C                     strcmp@r:	; 1 bytes @ 0x4
  1586                           	global	___wmul@multiplier
  1587  004C                     ___wmul@multiplier:	; 2 bytes @ 0x4
  1588  004C                     	ds	1
  1589                           	global	??_memcmp
  1590  004D                     ??_memcmp:	; 0 bytes @ 0x5
  1591                           	global	DelayS@i
  1592  004D                     DelayS@i:	; 1 bytes @ 0x5
  1593                           	global	lcdcmd@z
  1594  004D                     lcdcmd@z:	; 1 bytes @ 0x5
  1595                           	global	lcddata@z
  1596  004D                     lcddata@z:	; 1 bytes @ 0x5
  1597                           	global	strcmp@s1
  1598  004D                     strcmp@s1:	; 1 bytes @ 0x5
  1599                           	global	___lwmod@counter
  1600  004D                     ___lwmod@counter:	; 1 bytes @ 0x5
  1601                           	global	___awmod@counter
  1602  004D                     ___awmod@counter:	; 1 bytes @ 0x5
  1603                           	global	RFID_read@i
  1604  004D                     RFID_read@i:	; 2 bytes @ 0x5
  1605  004D                     	ds	1
  1606                           	global	?___lwdiv
  1607  004E                     ?___lwdiv:	; 2 bytes @ 0x6
  1608                           	global	lcdcmd@a
  1609  004E                     lcdcmd@a:	; 1 bytes @ 0x6
  1610                           	global	lcddata@a
  1611  004E                     lcddata@a:	; 1 bytes @ 0x6
  1612                           	global	___awmod@sign
  1613  004E                     ___awmod@sign:	; 1 bytes @ 0x6
  1614                           	global	___wmul@multiplicand
  1615  004E                     ___wmul@multiplicand:	; 2 bytes @ 0x6
  1616                           	global	___lwdiv@divisor
  1617  004E                     ___lwdiv@divisor:	; 2 bytes @ 0x6
  1618  004E                     	ds	1
  1619                           	global	??_lcd_init
  1620  004F                     ??_lcd_init:	; 0 bytes @ 0x7
  1621                           	global	?_lcdstring
  1622  004F                     ?_lcdstring:	; 0 bytes @ 0x7
  1623                           	global	?___awdiv
  1624  004F                     ?___awdiv:	; 2 bytes @ 0x7
  1625                           	global	lcdstring@a
  1626  004F                     lcdstring@a:	; 2 bytes @ 0x7
  1627                           	global	___awdiv@divisor
  1628  004F                     ___awdiv@divisor:	; 2 bytes @ 0x7
  1629  004F                     	ds	1
  1630                           	global	??___wmul
  1631  0050                     ??___wmul:	; 0 bytes @ 0x8
  1632                           	global	___wmul@product
  1633  0050                     ___wmul@product:	; 2 bytes @ 0x8
  1634                           	global	___lwdiv@dividend
  1635  0050                     ___lwdiv@dividend:	; 2 bytes @ 0x8
  1636  0050                     	ds	1
  1637                           	global	??_lcdstring
  1638  0051                     ??_lcdstring:	; 0 bytes @ 0x9
  1639                           	global	??_gsm_init
  1640  0051                     ??_gsm_init:	; 0 bytes @ 0x9
  1641                           	global	??_startup
  1642  0051                     ??_startup:	; 0 bytes @ 0x9
  1643                           	global	gsm_init@d
  1644  0051                     gsm_init@d:	; 1 bytes @ 0x9
  1645                           	global	___awdiv@dividend
  1646  0051                     ___awdiv@dividend:	; 2 bytes @ 0x9
  1647  0051                     	ds	1
  1648                           	global	??_ReadAmnt
  1649  0052                     ??_ReadAmnt:	; 0 bytes @ 0xA
  1650                           	global	??_ReadStock
  1651  0052                     ??_ReadStock:	; 0 bytes @ 0xA
  1652                           	global	??_paramter
  1653  0052                     ??_paramter:	; 0 bytes @ 0xA
  1654                           	global	??___lwdiv
  1655  0052                     ??___lwdiv:	; 0 bytes @ 0xA
  1656  0052                     	ds	1
  1657                           	global	??___awdiv
  1658  0053                     ??___awdiv:	; 0 bytes @ 0xB
  1659                           	global	___lwdiv@quotient
  1660  0053                     ___lwdiv@quotient:	; 2 bytes @ 0xB
  1661  0053                     	ds	1
  1662                           	global	___awdiv@counter
  1663  0054                     ___awdiv@counter:	; 1 bytes @ 0xC
  1664  0054                     	ds	1
  1665                           	global	___lwdiv@counter
  1666  0055                     ___lwdiv@counter:	; 1 bytes @ 0xD
  1667                           	global	___awdiv@sign
  1668  0055                     ___awdiv@sign:	; 1 bytes @ 0xD
  1669  0055                     	ds	1
  1670                           	global	??_LoadStockToArray
  1671  0056                     ??_LoadStockToArray:	; 0 bytes @ 0xE
  1672                           	global	___awdiv@quotient
  1673  0056                     ___awdiv@quotient:	; 2 bytes @ 0xE
  1674  0056                     	ds	1
  1675                           	global	_LoadStockToArray$1138
  1676  0057                     _LoadStockToArray$1138:	; 2 bytes @ 0xF
  1677  0057                     	ds	1
  1678                           	global	?_eeprom_write
  1679  0058                     ?_eeprom_write:	; 0 bytes @ 0x10
  1680                           	global	?_DisplayAmnt
  1681  0058                     ?_DisplayAmnt:	; 0 bytes @ 0x10
  1682                           	global	?_DisplaySugar
  1683  0058                     ?_DisplaySugar:	; 0 bytes @ 0x10
  1684                           	global	?_DisplayRise
  1685  0058                     ?_DisplayRise:	; 0 bytes @ 0x10
  1686                           	global	?_DisplayKerosene
  1687  0058                     ?_DisplayKerosene:	; 0 bytes @ 0x10
  1688                           	global	DisplaySugar@Sugar
  1689  0058                     DisplaySugar@Sugar:	; 1 bytes @ 0x10
  1690                           	global	DisplayRise@Rise
  1691  0058                     DisplayRise@Rise:	; 1 bytes @ 0x10
  1692                           	global	DisplayKerosene@Kerosene
  1693  0058                     DisplayKerosene@Kerosene:	; 1 bytes @ 0x10
  1694                           	global	eeprom_write@value
  1695  0058                     eeprom_write@value:	; 1 bytes @ 0x10
  1696                           	global	DisplayAmnt@Amnt
  1697  0058                     DisplayAmnt@Amnt:	; 2 bytes @ 0x10
  1698  0058                     	ds	1
  1699                           	global	??_eeprom_write
  1700  0059                     ??_eeprom_write:	; 0 bytes @ 0x11
  1701                           	global	??_DisplaySugar
  1702  0059                     ??_DisplaySugar:	; 0 bytes @ 0x11
  1703                           	global	??_DisplayRise
  1704  0059                     ??_DisplayRise:	; 0 bytes @ 0x11
  1705                           	global	??_DisplayKerosene
  1706  0059                     ??_DisplayKerosene:	; 0 bytes @ 0x11
  1707  0059                     	ds	1
  1708                           	global	??_DisplayAmnt
  1709  005A                     ??_DisplayAmnt:	; 0 bytes @ 0x12
  1710                           	global	eeprom_write@addr
  1711  005A                     eeprom_write@addr:	; 1 bytes @ 0x12
  1712                           	global	_DisplayAmnt$1137
  1713  005A                     _DisplayAmnt$1137:	; 2 bytes @ 0x12
  1714  005A                     	ds	1
  1715                           	global	DisplaySugar@Location
  1716  005B                     DisplaySugar@Location:	; 1 bytes @ 0x13
  1717                           	global	DisplayRise@Location
  1718  005B                     DisplayRise@Location:	; 1 bytes @ 0x13
  1719                           	global	DisplayKerosene@Location
  1720  005B                     DisplayKerosene@Location:	; 1 bytes @ 0x13
  1721  005B                     	ds	1
  1722                           	global	DisplayAmnt@Location
  1723  005C                     DisplayAmnt@Location:	; 1 bytes @ 0x14
  1724  005C                     	ds	1
  1725                           	global	??_DisplayStock
  1726  005D                     ??_DisplayStock:	; 0 bytes @ 0x15
  1727                           	global	??_main
  1728  005D                     ??_main:	; 0 bytes @ 0x15
  1729  005D                     	ds	3
  1730 ;;Data sizes: Strings 658, constant 22, data 43, bss 93, persistent 0 stack 0
  1731 ;;Auto spaces:   Size  Autos    Used
  1732 ;; COMMON          14      8      14
  1733 ;; BANK0           80     24      79
  1734 ;; BANK1           80      0      76
  1735 ;; BANK3           96      0       0
  1736 ;; BANK2           96      0       0
  1737                           
  1738 ;;
  1739 ;; Pointer list with targets:
  1740                           
  1741 ;; ?_memcmp	int  size(1) Largest target is 0
  1742 ;;
  1743 ;; ?_strcmp	int  size(1) Largest target is 0
  1744 ;;
  1745 ;; ?___lwmod	unsigned int  size(1) Largest target is 0
  1746 ;;
  1747 ;; ?___lwdiv	unsigned int  size(1) Largest target is 0
  1748 ;;
  1749 ;; ?___wmul	unsigned int  size(1) Largest target is 0
  1750 ;;
  1751 ;; ?___awmod	int  size(1) Largest target is 0
  1752 ;;
  1753 ;; ?___awdiv	int  size(1) Largest target is 0
  1754 ;;
  1755 ;; strcmp@s2	PTR const unsigned char  size(1) Largest target is 13
  1756 ;;		 -> User3(BANK1[13]), User2(BANK1[13]), User1(BANK0[13]), 
  1757 ;;
  1758 ;; strcmp@s1	PTR const unsigned char  size(1) Largest target is 15
  1759 ;;		 -> card_store(BANK1[15]), 
  1760 ;;
  1761 ;; memcmp@s2	PTR const void  size(1) Largest target is 20
  1762 ;;		 -> sms(BANK1[20]), 
  1763 ;;
  1764 ;; memcmp@s1	PTR const void  size(2) Largest target is 6
  1765 ;;		 -> STR_57(CODE[6]), 
  1766 ;;
  1767 ;; gsm_read_line2@buffer	PTR unsigned char  size(1) Largest target is 20
  1768 ;;		 -> sms(BANK1[20]), 
  1769 ;;
  1770 ;; usartstring@st	PTR const unsigned char  size(2) Largest target is 29
  1771 ;;		 -> STR_33(CODE[5]), STR_32(CODE[16]), STR_31(CODE[5]), STR_30(CODE[13]), 
  1772 ;;		 -> STR_29(CODE[5]), STR_28(CODE[12]), STR_27(CODE[24]), KeroseneArray(BANK0[4]), 
  1773 ;;		 -> SugarArray(BANK0[4]), RiseArray(BANK0[5]), STR_18(CODE[20]), STR_17(CODE[24]), 
  1774 ;;		 -> STR_16(CODE[20]), STR_15(CODE[24]), STR_14(CODE[20]), STR_13(CODE[24]), 
  1775 ;;		 -> STR_12(CODE[29]), STR_11(CODE[24]), STR_10(CODE[27]), STR_9(CODE[24]), 
  1776 ;;		 -> STR_7(CODE[19]), STR_6(CODE[11]), STR_5(CODE[11]), STR_4(CODE[10]), 
  1777 ;;		 -> STR_3(CODE[4]), 
  1778 ;;
  1779 ;; lcdstring@a	PTR const unsigned char  size(2) Largest target is 22
  1780 ;;		 -> STR_56(CODE[18]), STR_55(CODE[18]), STR_54(CODE[18]), STR_53(CODE[21]), 
  1781 ;;		 -> STR_52(CODE[21]), STR_51(CODE[21]), STR_50(CODE[21]), STR_49(CODE[18]), 
  1782 ;;		 -> STR_48(CODE[18]), STR_47(CODE[18]), STR_46(CODE[21]), STR_45(CODE[21]), 
  1783 ;;		 -> STR_44(CODE[21]), STR_43(CODE[21]), STR_42(CODE[18]), STR_41(CODE[18]), 
  1784 ;;		 -> STR_40(CODE[18]), STR_39(CODE[21]), STR_38(CODE[21]), STR_37(CODE[21]), 
  1785 ;;		 -> STR_36(CODE[21]), STR_35(CODE[18]), STR_34(CODE[18]), STR_26(CODE[18]), 
  1786 ;;		 -> STR_25(CODE[18]), STR_24(CODE[18]), STR_23(CODE[18]), STR_22(CODE[22]), 
  1787 ;;		 -> STR_21(CODE[22]), STR_20(CODE[21]), STR_19(CODE[21]), sms(BANK1[20]), 
  1788 ;;		 -> STR_8(CODE[10]), STR_2(CODE[17]), STR_1(CODE[17]), 
  1789 ;;
  1790                           
  1791                           
  1792 ;;
  1793 ;; Critical Paths under _main in COMMON
  1794 ;;
  1795 ;;   None.
  1796 ;;
  1797 ;; Critical Paths under _ISR in COMMON
  1798 ;;
  1799 ;;   _ISR->_gsm_read_line2
  1800 ;;
  1801 ;; Critical Paths under _main in BANK0
  1802 ;;
  1803 ;;   _main->_DisplayAmnt
  1804 ;;   _startup->_lcdstring
  1805 ;;   _DisplayStock->_DisplayAmnt
  1806 ;;   _gsm_init->_lcdstring
  1807 ;;   _DisplayKerosene->___awdiv
  1808 ;;   _DisplayRise->___awdiv
  1809 ;;   _DisplaySugar->___awdiv
  1810 ;;   _DisplayAmnt->___awdiv
  1811 ;;   _lcdstring->_lcddata
  1812 ;;   _lcd_init->_lcdcmd
  1813 ;;   _SendStock->_usartstring
  1814 ;;   _RFID_read->_softreceive
  1815 ;;   _lcddata->_enable
  1816 ;;   _lcdcmd->_enable
  1817 ;;   _LoadStockToArray->___lwdiv
  1818 ;;   _paramter->___wmul
  1819 ;;   _ReadStock->___wmul
  1820 ;;   _ReadAmnt->___wmul
  1821 ;;   _usartstring->_transmit
  1822 ;;   _DelayS->_DelayMs
  1823 ;;   ___awdiv->___awmod
  1824 ;;   ___lwdiv->___lwmod
  1825 ;;   ___wmul->_eeprom_read
  1826 ;;   _eeprom_write->___awdiv
  1827 ;;
  1828 ;; Critical Paths under _ISR in BANK0
  1829 ;;
  1830 ;;   None.
  1831 ;;
  1832 ;; Critical Paths under _main in BANK1
  1833 ;;
  1834 ;;   None.
  1835 ;;
  1836 ;; Critical Paths under _ISR in BANK1
  1837 ;;
  1838 ;;   None.
  1839 ;;
  1840 ;; Critical Paths under _main in BANK3
  1841 ;;
  1842 ;;   None.
  1843 ;;
  1844 ;; Critical Paths under _ISR in BANK3
  1845 ;;
  1846 ;;   None.
  1847 ;;
  1848 ;; Critical Paths under _main in BANK2
  1849 ;;
  1850 ;;   None.
  1851 ;;
  1852 ;; Critical Paths under _ISR in BANK2
  1853 ;;
  1854 ;;   None.
  1855                           
  1856 ;;
  1857 ;;Main: autosize = 0, tempsize = 3, incstack = 0, save=0
  1858 ;;
  1859                           
  1860 ;;
  1861 ;;Call Graph Tables:
  1862 ;;
  1863 ;; ---------------------------------------------------------------------------------
  1864 ;; (Depth) Function   	        Calls       Base Space   Used Autos Params    Refs
  1865 ;; ---------------------------------------------------------------------------------
  1866 ;; (0) _main                                                 3     3      0    9611
  1867 ;;                                             21 BANK0      3     3      0
  1868 ;;                          _uart_init
  1869 ;;                           _lcd_init
  1870 ;;                           _paramter
  1871 ;;                  _SoftWareUart_Init
  1872 ;;                            _startup
  1873 ;;                           _gsm_init
  1874 ;;                          _ReadStock
  1875 ;;                          _lcdstring
  1876 ;;                             _lcdcmd
  1877 ;;                          _RFID_read
  1878 ;;                             _strcmp
  1879 ;;                           _ReadAmnt
  1880 ;;                        _DisplayAmnt
  1881 ;;                        _DisplayRise
  1882 ;;                       _DisplaySugar
  1883 ;;                    _DisplayKerosene
  1884 ;;                            ___lwdiv
  1885 ;;                       _eeprom_write
  1886 ;;                            ___lwmod
  1887 ;;                            ___awdiv
  1888 ;;                            ___awmod
  1889 ;;                   _LoadStockToArray
  1890 ;;                       _DisplayStock
  1891 ;;                             _memcmp
  1892 ;;                          _SendStock
  1893 ;; ---------------------------------------------------------------------------------
  1894 ;; (1) _startup                                              3     3      0     401
  1895 ;;                                              9 BANK0      3     3      0
  1896 ;;                             _lcdcmd
  1897 ;;                          _lcdstring
  1898 ;; ---------------------------------------------------------------------------------
  1899 ;; (1) _DisplayStock                                         0     0      0    1486
  1900 ;;                             _lcdcmd
  1901 ;;                          _lcdstring
  1902 ;;                        _DisplayAmnt
  1903 ;; ---------------------------------------------------------------------------------
  1904 ;; (1) _gsm_init                                             1     1      0     585
  1905 ;;                                              9 BANK0      1     1      0
  1906 ;;                             _lcdcmd
  1907 ;;                          _lcdstring
  1908 ;;                             _DelayS
  1909 ;;                        _usartstring
  1910 ;;                           _transmit
  1911 ;;                            _receive
  1912 ;; ---------------------------------------------------------------------------------
  1913 ;; (1) _DisplayKerosene                                      4     3      1    1018
  1914 ;;                                             16 BANK0      4     3      1
  1915 ;;                             _lcdcmd
  1916 ;;                            ___awdiv
  1917 ;;                            _lcddata
  1918 ;;                            ___awmod
  1919 ;; ---------------------------------------------------------------------------------
  1920 ;; (1) _DisplayRise                                          4     3      1    1018
  1921 ;;                                             16 BANK0      4     3      1
  1922 ;;                             _lcdcmd
  1923 ;;                            ___awdiv
  1924 ;;                            _lcddata
  1925 ;;                            ___awmod
  1926 ;; ---------------------------------------------------------------------------------
  1927 ;; (1) _DisplaySugar                                         4     3      1    1018
  1928 ;;                                             16 BANK0      4     3      1
  1929 ;;                             _lcdcmd
  1930 ;;                            ___awdiv
  1931 ;;                            _lcddata
  1932 ;;                            ___awmod
  1933 ;; ---------------------------------------------------------------------------------
  1934 ;; (2) _DisplayAmnt                                          5     3      2    1085
  1935 ;;                                             16 BANK0      5     3      2
  1936 ;;                             _lcdcmd
  1937 ;;                            ___awdiv
  1938 ;;                            _lcddata
  1939 ;;                            ___awmod
  1940 ;; ---------------------------------------------------------------------------------
  1941 ;; (2) _lcdstring                                            2     0      2     223
  1942 ;;                                              7 BANK0      2     0      2
  1943 ;;                            _lcddata
  1944 ;; ---------------------------------------------------------------------------------
  1945 ;; (1) _lcd_init                                             2     2      0     266
  1946 ;;                                              7 BANK0      2     2      0
  1947 ;;                            _lcdport
  1948 ;;                             _lcdcmd
  1949 ;; ---------------------------------------------------------------------------------
  1950 ;; (1) _SendStock                                            1     1      0      91
  1951 ;;                                              3 BANK0      1     1      0
  1952 ;;                        _usartstring
  1953 ;;                           _transmit
  1954 ;;                            _receive
  1955 ;; ---------------------------------------------------------------------------------
  1956 ;; (1) _RFID_read                                            3     3      0     204
  1957 ;;                                              4 BANK0      3     3      0
  1958 ;;                        _softreceive
  1959 ;; ---------------------------------------------------------------------------------
  1960 ;; (3) _lcddata                                              5     5      0     178
  1961 ;;                                              2 BANK0      5     5      0
  1962 ;;                            _lcdport
  1963 ;;                             _enable
  1964 ;; ---------------------------------------------------------------------------------
  1965 ;; (3) _lcdcmd                                               5     5      0     178
  1966 ;;                                              2 BANK0      5     5      0
  1967 ;;                            _lcdport
  1968 ;;                             _enable
  1969 ;; ---------------------------------------------------------------------------------
  1970 ;; (1) _LoadStockToArray                                     7     7      0     528
  1971 ;;                                             14 BANK0      3     3      0
  1972 ;;                            ___lwdiv
  1973 ;;                            ___lwmod
  1974 ;; ---------------------------------------------------------------------------------
  1975 ;; (1) _paramter                                             3     3      0     114
  1976 ;;                                             10 BANK0      3     3      0
  1977 ;;                        _eeprom_read
  1978 ;;                             ___wmul
  1979 ;; ---------------------------------------------------------------------------------
  1980 ;; (1) _ReadStock                                            3     3      0     114
  1981 ;;                                             10 BANK0      3     3      0
  1982 ;;                        _eeprom_read
  1983 ;;                             ___wmul
  1984 ;; ---------------------------------------------------------------------------------
  1985 ;; (1) _ReadAmnt                                             3     3      0     114
  1986 ;;                                             10 BANK0      3     3      0
  1987 ;;                        _eeprom_read
  1988 ;;                             ___wmul
  1989 ;; ---------------------------------------------------------------------------------
  1990 ;; (2) _usartstring                                          2     0      2      67
  1991 ;;                                              1 BANK0      2     0      2
  1992 ;;                           _transmit
  1993 ;; ---------------------------------------------------------------------------------
  1994 ;; (2) _softreceive                                          4     4      0     136
  1995 ;;                                              0 BANK0      4     4      0
  1996 ;; ---------------------------------------------------------------------------------
  1997 ;; (1) _SoftWareUart_Init                                    1     1      0       0
  1998 ;;                                              0 BANK0      1     1      0
  1999 ;; ---------------------------------------------------------------------------------
  2000 ;; (4) _enable                                               2     2      0       0
  2001 ;;                                              0 BANK0      2     2      0
  2002 ;; ---------------------------------------------------------------------------------
  2003 ;; (2) _DelayS                                               3     3      0      90
  2004 ;;                                              3 BANK0      3     3      0
  2005 ;;                            _DelayMs
  2006 ;; ---------------------------------------------------------------------------------
  2007 ;; (3) ___awmod                                              7     3      4     296
  2008 ;;                                              0 BANK0      7     3      4
  2009 ;; ---------------------------------------------------------------------------------
  2010 ;; (3) ___awdiv                                              9     5      4     300
  2011 ;;                                              7 BANK0      9     5      4
  2012 ;;                            ___awmod (ARG)
  2013 ;; ---------------------------------------------------------------------------------
  2014 ;; (2) ___lwmod                                              6     2      4     159
  2015 ;;                                              0 BANK0      6     2      4
  2016 ;; ---------------------------------------------------------------------------------
  2017 ;; (2) ___lwdiv                                              8     4      4     162
  2018 ;;                                              6 BANK0      8     4      4
  2019 ;;                            ___lwmod (ARG)
  2020 ;; ---------------------------------------------------------------------------------
  2021 ;; (2) ___wmul                                               6     2      4      92
  2022 ;;                                              4 BANK0      6     2      4
  2023 ;;                        _eeprom_read (ARG)
  2024 ;; ---------------------------------------------------------------------------------
  2025 ;; (1) _memcmp                                               7     2      5     118
  2026 ;;                                              0 BANK0      7     2      5
  2027 ;; ---------------------------------------------------------------------------------
  2028 ;; (1) _eeprom_write                                         3     2      1      44
  2029 ;;                                             16 BANK0      3     2      1
  2030 ;;                            ___lwdiv (ARG)
  2031 ;;                            ___lwmod (ARG)
  2032 ;;                            ___awdiv (ARG)
  2033 ;;                            ___awmod (ARG)
  2034 ;; ---------------------------------------------------------------------------------
  2035 ;; (1) _strcmp                                               6     4      2      89
  2036 ;;                                              0 BANK0      6     4      2
  2037 ;; ---------------------------------------------------------------------------------
  2038 ;; (1) _uart_init                                            0     0      0       0
  2039 ;; ---------------------------------------------------------------------------------
  2040 ;; (2) _eeprom_read                                          4     4      0      22
  2041 ;;                                              0 BANK0      4     4      0
  2042 ;; ---------------------------------------------------------------------------------
  2043 ;; (2) _transmit                                             1     1      0      22
  2044 ;;                                              0 BANK0      1     1      0
  2045 ;; ---------------------------------------------------------------------------------
  2046 ;; (2) _receive                                              0     0      0       0
  2047 ;; ---------------------------------------------------------------------------------
  2048 ;; (4) _lcdport                                              1     1      0      88
  2049 ;;                                              0 BANK0      1     1      0
  2050 ;; ---------------------------------------------------------------------------------
  2051 ;; (3) _DelayMs                                              3     3      0      45
  2052 ;;                                              0 BANK0      3     3      0
  2053 ;; ---------------------------------------------------------------------------------
  2054 ;; Estimated maximum stack depth 4
  2055 ;; ---------------------------------------------------------------------------------
  2056 ;; (Depth) Function   	        Calls       Base Space   Used Autos Params    Refs
  2057 ;; ---------------------------------------------------------------------------------
  2058 ;; (5) _ISR                                                  4     4      0     138
  2059 ;;                                              4 COMMON     4     4      0
  2060 ;;                     _gsm_read_line2
  2061 ;; ---------------------------------------------------------------------------------
  2062 ;; (6) _gsm_read_line2                                       4     4      0     138
  2063 ;;                                              0 COMMON     4     4      0
  2064 ;;                          i1_receive
  2065 ;; ---------------------------------------------------------------------------------
  2066 ;; (7) i1_receive                                            0     0      0       0
  2067 ;; ---------------------------------------------------------------------------------
  2068 ;; Estimated maximum stack depth 7
  2069 ;; ---------------------------------------------------------------------------------
  2070                           
  2071 ;; Call Graph Graphs:
  2072                           
  2073 ;; _main (ROOT)
  2074 ;;   _uart_init
  2075 ;;   _lcd_init
  2076 ;;     _lcdport
  2077 ;;     _lcdcmd
  2078 ;;       _lcdport
  2079 ;;       _enable
  2080 ;;   _paramter
  2081 ;;     _eeprom_read
  2082 ;;     ___wmul
  2083 ;;       _eeprom_read (ARG)
  2084 ;;   _SoftWareUart_Init
  2085 ;;   _startup
  2086 ;;     _lcdcmd
  2087 ;;       _lcdport
  2088 ;;       _enable
  2089 ;;     _lcdstring
  2090 ;;       _lcddata
  2091 ;;         _lcdport
  2092 ;;         _enable
  2093 ;;   _gsm_init
  2094 ;;     _lcdcmd
  2095 ;;       _lcdport
  2096 ;;       _enable
  2097 ;;     _lcdstring
  2098 ;;       _lcddata
  2099 ;;         _lcdport
  2100 ;;         _enable
  2101 ;;     _DelayS
  2102 ;;       _DelayMs
  2103 ;;     _usartstring
  2104 ;;       _transmit
  2105 ;;     _transmit
  2106 ;;     _receive
  2107 ;;   _ReadStock
  2108 ;;     _eeprom_read
  2109 ;;     ___wmul
  2110 ;;       _eeprom_read (ARG)
  2111 ;;   _lcdstring
  2112 ;;     _lcddata
  2113 ;;       _lcdport
  2114 ;;       _enable
  2115 ;;   _lcdcmd
  2116 ;;     _lcdport
  2117 ;;     _enable
  2118 ;;   _RFID_read
  2119 ;;     _softreceive
  2120 ;;   _strcmp
  2121 ;;   _ReadAmnt
  2122 ;;     _eeprom_read
  2123 ;;     ___wmul
  2124 ;;       _eeprom_read (ARG)
  2125 ;;   _DisplayAmnt
  2126 ;;     _lcdcmd
  2127 ;;       _lcdport
  2128 ;;       _enable
  2129 ;;     ___awdiv
  2130 ;;       ___awmod (ARG)
  2131 ;;     _lcddata
  2132 ;;       _lcdport
  2133 ;;       _enable
  2134 ;;     ___awmod
  2135 ;;   _DisplayRise
  2136 ;;     _lcdcmd
  2137 ;;       _lcdport
  2138 ;;       _enable
  2139 ;;     ___awdiv
  2140 ;;       ___awmod (ARG)
  2141 ;;     _lcddata
  2142 ;;       _lcdport
  2143 ;;       _enable
  2144 ;;     ___awmod
  2145 ;;   _DisplaySugar
  2146 ;;     _lcdcmd
  2147 ;;       _lcdport
  2148 ;;       _enable
  2149 ;;     ___awdiv
  2150 ;;       ___awmod (ARG)
  2151 ;;     _lcddata
  2152 ;;       _lcdport
  2153 ;;       _enable
  2154 ;;     ___awmod
  2155 ;;   _DisplayKerosene
  2156 ;;     _lcdcmd
  2157 ;;       _lcdport
  2158 ;;       _enable
  2159 ;;     ___awdiv
  2160 ;;       ___awmod (ARG)
  2161 ;;     _lcddata
  2162 ;;       _lcdport
  2163 ;;       _enable
  2164 ;;     ___awmod
  2165 ;;   ___lwdiv
  2166 ;;     ___lwmod (ARG)
  2167 ;;   _eeprom_write
  2168 ;;     ___lwdiv (ARG)
  2169 ;;       ___lwmod (ARG)
  2170 ;;     ___lwmod (ARG)
  2171 ;;     ___awdiv (ARG)
  2172 ;;       ___awmod (ARG)
  2173 ;;     ___awmod (ARG)
  2174 ;;   ___lwmod
  2175 ;;   ___awdiv
  2176 ;;     ___awmod (ARG)
  2177 ;;   ___awmod
  2178 ;;   _LoadStockToArray
  2179 ;;     ___lwdiv
  2180 ;;       ___lwmod (ARG)
  2181 ;;     ___lwmod
  2182 ;;   _DisplayStock
  2183 ;;     _lcdcmd
  2184 ;;       _lcdport
  2185 ;;       _enable
  2186 ;;     _lcdstring
  2187 ;;       _lcddata
  2188 ;;         _lcdport
  2189 ;;         _enable
  2190 ;;     _DisplayAmnt
  2191 ;;       _lcdcmd
  2192 ;;         _lcdport
  2193 ;;         _enable
  2194 ;;       ___awdiv
  2195 ;;         ___awmod (ARG)
  2196 ;;       _lcddata
  2197 ;;         _lcdport
  2198 ;;         _enable
  2199 ;;       ___awmod
  2200 ;;   _memcmp
  2201 ;;   _SendStock
  2202 ;;     _usartstring
  2203 ;;       _transmit
  2204 ;;     _transmit
  2205 ;;     _receive
  2206 ;;
  2207 ;; _ISR (ROOT)
  2208 ;;   _gsm_read_line2
  2209 ;;     i1_receive
  2210 ;;
  2211                           
  2212 ;; Address spaces:
  2213                           
  2214 ;;Name               Size   Autos  Total    Cost      Usage
  2215 ;;BANK3               60      0       0       9        0.0%
  2216 ;;BITBANK3            60      0       0       8        0.0%
  2217 ;;SFR3                 0      0       0       4        0.0%
  2218 ;;BITSFR3              0      0       0       4        0.0%
  2219 ;;BANK2               60      0       0      11        0.0%
  2220 ;;BITBANK2            60      0       0      10        0.0%
  2221 ;;SFR2                 0      0       0       5        0.0%
  2222 ;;BITSFR2              0      0       0       5        0.0%
  2223 ;;SFR1                 0      0       0       2        0.0%
  2224 ;;BITSFR1              0      0       0       2        0.0%
  2225 ;;BANK1               50      0      4C       7       95.0%
  2226 ;;BITBANK1            50      0       0       6        0.0%
  2227 ;;CODE                 0      0       0       0        0.0%
  2228 ;;DATA                 0      0      B3      12        0.0%
  2229 ;;ABS                  0      0      A9       3        0.0%
  2230 ;;NULL                 0      0       0       0        0.0%
  2231 ;;STACK                0      0       A       2        0.0%
  2232 ;;BANK0               50     18      4F       5       98.8%
  2233 ;;BITBANK0            50      0       0       4        0.0%
  2234 ;;SFR0                 0      0       0       1        0.0%
  2235 ;;BITSFR0              0      0       0       1        0.0%
  2236 ;;COMMON               E      8       E       1      100.0%
  2237 ;;BITCOMMON            E      0       1       0        7.1%
  2238 ;;EEDATA             100      0       0       0        0.0%
  2239                           
  2240                           	global	_main
  2241                           psect	maintext,global,class=CODE,delta=2
  2242                           global __pmaintext
  2243  0015                     __pmaintext:
  2244                           
  2245 ;; *************** function _main *****************
  2246 ;; Defined at:
  2247 ;;		line 214 in file "F:\PiROOT_Tech\student_projects\AutomaticRationCardSystem\Main.c"
  2248 ;; Parameters:    Size  Location     Type
  2249 ;;		None
  2250 ;; Auto vars:     Size  Location     Type
  2251 ;;		None
  2252 ;; Return value:  Size  Location     Type
  2253 ;;		None               void
  2254 ;; Registers used:
  2255 ;;		wreg, fsr0l, fsr0h, status,2, status,0, btemp+1, pclath, cstack
  2256 ;; Tracked objects:
  2257 ;;		On entry : 17F/0
  2258 ;;		On exit  : 0/0
  2259 ;;		Unchanged: 0/0
  2260 ;; Data sizes:     COMMON   BANK0   BANK1   BANK3   BANK2
  2261 ;;      Params:         0       0       0       0       0
  2262 ;;      Locals:         0       0       0       0       0
  2263 ;;      Temps:          0       3       0       0       0
  2264 ;;      Totals:         0       3       0       0       0
  2265 ;;Total ram usage:        3 bytes
  2266 ;; Hardware stack levels required when called:    7
  2267 ;; This function calls:
  2268 ;;		_uart_init
  2269 ;;		_lcd_init
  2270 ;;		_paramter
  2271 ;;		_SoftWareUart_Init
  2272 ;;		_startup
  2273 ;;		_gsm_init
  2274 ;;		_ReadStock
  2275 ;;		_lcdstring
  2276 ;;		_lcdcmd
  2277 ;;		_RFID_read
  2278 ;;		_strcmp
  2279 ;;		_ReadAmnt
  2280 ;;		_DisplayAmnt
  2281 ;;		_DisplayRise
  2282 ;;		_DisplaySugar
  2283 ;;		_DisplayKerosene
  2284 ;;		___lwdiv
  2285 ;;		_eeprom_write
  2286 ;;		___lwmod
  2287 ;;		___awdiv
  2288 ;;		___awmod
  2289 ;;		_LoadStockToArray
  2290 ;;		_DisplayStock
  2291 ;;		_memcmp
  2292 ;;		_SendStock
  2293 ;; This function is called by:
  2294 ;;		Startup code after reset
  2295 ;; This function uses a non-reentrant model
  2296 ;;
  2297                           psect	maintext
  2298                           	file	"F:\PiROOT_Tech\student_projects\AutomaticRationCardSystem\Main.c"
  2299                           	line	214
  2300                           	global	__size_of_main
  2301  06F5                     	__size_of_main	equ	__end_of_main-_main
  2302                           	
  2303  0015                     _main:	
  2304                           	opt	stack 1
  2305                           ; Regs used in _main: [wreg-fsr0h+status,2+status,0+btemp+1+pclath+cstack]
  2306                           	line	215
  2307                           	
  2308  0015                     l4748:	
  2309                           ;Main.c: 215: ANSEL=0x00;
  2310  0015  1683               	bsf	status, 5	;RP0=1, select bank3
  2311  0016  1703               	bsf	status, 6	;RP1=1, select bank3
  2312  0017  0188               	clrf	(392)^0180h	;volatile
  2313                           	line	216
  2314                           ;Main.c: 216: ANSELH=0x00;
  2315  0018  0189               	clrf	(393)^0180h	;volatile
  2316                           	line	217
  2317                           	
  2318  0019                     l4750:	
  2319                           ;Main.c: 217: TRISD=0X01;
  2320  0019  3001               	movlw	(01h)
  2321  001A  1683               	bsf	status, 5	;RP0=1, select bank1
  2322  001B  1303               	bcf	status, 6	;RP1=0, select bank1
  2323  001C  0088               	movwf	(136)^080h	;volatile
  2324                           	line	218
  2325                           	
  2326  001D                     l4752:	
  2327                           ;Main.c: 218: PORTD=0X00;
  2328  001D  1283               	bcf	status, 5	;RP0=0, select bank0
  2329  001E  1303               	bcf	status, 6	;RP1=0, select bank0
  2330  001F  0188               	clrf	(8)	;volatile
  2331                           	line	219
  2332                           ;Main.c: 219: TRISC=0X8F;
  2333  0020  308F               	movlw	(08Fh)
  2334  0021  1683               	bsf	status, 5	;RP0=1, select bank1
  2335  0022  1303               	bcf	status, 6	;RP1=0, select bank1
  2336  0023  0087               	movwf	(135)^080h	;volatile
  2337                           	line	220
  2338                           	
  2339  0024                     l4754:	
  2340                           ;Main.c: 220: PORTC=0X00;
  2341  0024  1283               	bcf	status, 5	;RP0=0, select bank0
  2342  0025  1303               	bcf	status, 6	;RP1=0, select bank0
  2343  0026  0187               	clrf	(7)	;volatile
  2344                           	line	221
  2345                           	
  2346  0027                     l4756:	
  2347                           ;Main.c: 221: INTCON=0xC0;
  2348  0027  30C0               	movlw	(0C0h)
  2349  0028  008B               	movwf	(11)	;volatile
  2350                           	line	222
  2351                           	
  2352  0029                     l4758:	
  2353                           ;Main.c: 222: uart_init();
  2354  0029  120A  158A  2002   	fcall	_uart_init
              120A  118A         
  2355                           	line	223
  2356                           	
  2357  002E                     l4760:	
  2358                           ;Main.c: 223: lcd_init();
  2359  002E  120A  158A  216B   	fcall	_lcd_init
              120A  118A         
  2360                           	line	224
  2361                           	
  2362  0033                     l4762:	
  2363                           ;Main.c: 224: paramter();
  2364  0033  120A  158A  20C0   	fcall	_paramter
              120A  118A         
  2365                           	line	225
  2366                           	
  2367  0038                     l4764:	
  2368                           ;Main.c: 225: SoftWareUart_Init();
  2369  0038  160A  118A  2378   	fcall	_SoftWareUart_Init
              120A  118A         
  2370                           	line	226
  2371                           	
  2372  003D                     l4766:	
  2373                           ;Main.c: 226: startup();
  2374  003D  120A  158A  22AA   	fcall	_startup
              120A  118A         
  2375                           	line	227
  2376                           	
  2377  0042                     l4768:	
  2378                           ;Main.c: 227: gsm_init();
  2379  0042  120A  158A  2529   	fcall	_gsm_init
              120A  118A         
  2380                           	line	228
  2381                           	
  2382  0047                     l4770:	
  2383                           ;Main.c: 228: PIE1=0x20;
  2384  0047  3020               	movlw	(020h)
  2385  0048  1683               	bsf	status, 5	;RP0=1, select bank1
  2386  0049  1303               	bcf	status, 6	;RP1=0, select bank1
  2387  004A  008C               	movwf	(140)^080h	;volatile
  2388  004B  284C               	goto	l4772
  2389                           	line	230
  2390                           ;Main.c: 230: while(1)
  2391                           	
  2392  004C                     l1158:	
  2393                           	line	232
  2394                           	
  2395  004C                     l4772:	
  2396                           ;Main.c: 231: {
  2397                           ;Main.c: 232: ReadStock();
  2398  004C  160A  118A  2713   	fcall	_ReadStock
              120A  118A         
  2399                           	line	233
  2400                           	
  2401  0051                     l4774:	
  2402                           ;Main.c: 233: if(!RC0)
  2403  0051  1283               	bcf	status, 5	;RP0=0, select bank0
  2404  0052  1303               	bcf	status, 6	;RP1=0, select bank0
  2405  0053  1807               	btfsc	(56/8),(56)&7
  2406  0054  2856               	goto	u3771
  2407  0055  2857               	goto	u3770
  2408  0056                     u3771:
  2409  0056  2881               	goto	l4786
  2410  0057                     u3770:
  2411                           	line	235
  2412                           	
  2413  0057                     l4776:	
  2414                           ;Main.c: 234: {
  2415                           ;Main.c: 235: lcdstring("PLEASE TAP YOUR  ");
  2416  0057  30E9               	movlw	low(STR_34|8000h)
  2417  0058  00CF               	movwf	(?_lcdstring)
  2418  0059  3099               	movlw	high(STR_34|8000h)
  2419  005A  00D0               	movwf	((?_lcdstring))+1
  2420  005B  160A  118A  24D2   	fcall	_lcdstring
              120A  118A         
  2421                           	line	236
  2422                           	
  2423  0060                     l4778:	
  2424                           ;Main.c: 236: lcdcmd(0xC0);
  2425  0060  30C0               	movlw	(0C0h)
  2426  0061  160A  118A  252C   	fcall	_lcdcmd
              120A  118A         
  2427                           	line	237
  2428                           	
  2429  0066                     l4780:	
  2430                           ;Main.c: 237: lcdstring("SMART CARD       ");
  2431  0066  30B3               	movlw	low(STR_35|8000h)
  2432  0067  1283               	bcf	status, 5	;RP0=0, select bank0
  2433  0068  1303               	bcf	status, 6	;RP1=0, select bank0
  2434  0069  00CF               	movwf	(?_lcdstring)
  2435  006A  3099               	movlw	high(STR_35|8000h)
  2436  006B  00D0               	movwf	((?_lcdstring))+1
  2437  006C  160A  118A  24D2   	fcall	_lcdstring
              120A  118A         
  2438                           	line	238
  2439                           	
  2440  0071                     l4782:	
  2441                           ;Main.c: 238: _delay((unsigned long)((200)*(20000000/4000.0)));
  2442                           	opt asmopt_off
  2443  0071  3006               movlw  6
  2444  0072  1283               	bcf	status, 5	;RP0=0, select bank0
  2445  0073  1303               	bcf	status, 6	;RP1=0, select bank0
  2446  0074  00DF               movwf	((??_main+0)+0+2),f
  2447  0075  300E               movlw	14
  2448  0076  00DE               movwf	((??_main+0)+0+1),f
  2449  0077  30B0               	movlw	176
  2450  0078  00DD               movwf	((??_main+0)+0),f
  2451  0079                     u3867:
  2452  0079  0BDD               	decfsz	((??_main+0)+0),f
  2453  007A  2879               	goto	u3867
  2454  007B  0BDE               	decfsz	((??_main+0)+0+1),f
  2455  007C  2879               	goto	u3867
  2456  007D  0BDF               	decfsz	((??_main+0)+0+2),f
  2457  007E  2879               	goto	u3867
  2458                           opt asmopt_on
  2459                           
  2460                           	line	239
  2461                           	
  2462  007F                     l4784:	
  2463                           ;Main.c: 239: rfid_flag=0;
  2464  007F  107B               	bcf	(_rfid_flag/8),(_rfid_flag)&7
  2465  0080  2881               	goto	l4786
  2466                           	line	240
  2467                           	
  2468  0081                     l1159:	
  2469                           	line	241
  2470                           	
  2471  0081                     l4786:	
  2472                           ;Main.c: 240: }
  2473                           ;Main.c: 241: RFID_read();
  2474  0081  160A  118A  25C7   	fcall	_RFID_read
              120A  118A         
  2475                           	line	242
  2476                           	
  2477  0086                     l4788:	
  2478                           ;Main.c: 242: lcdcmd(0xD4);
  2479  0086  30D4               	movlw	(0D4h)
  2480  0087  160A  118A  252C   	fcall	_lcdcmd
              120A  118A         
  2481                           	line	243
  2482                           	
  2483  008C                     l4790:	
  2484                           ;Main.c: 243: lcdstring(sms);
  2485  008C  30AF               	movlw	(_sms&0ffh)
  2486  008D  1283               	bcf	status, 5	;RP0=0, select bank0
  2487  008E  1303               	bcf	status, 6	;RP1=0, select bank0
  2488  008F  00CF               	movwf	(?_lcdstring)
  2489  0090  3000               	movlw	(0x1/2)
  2490  0091  00D0               	movwf	(?_lcdstring+1)
  2491  0092  160A  118A  24D2   	fcall	_lcdstring
              120A  118A         
  2492                           	line	246
  2493                           	
  2494  0097                     l4792:	
  2495                           ;Main.c: 246: if(strcmp(card_store,User1)==0)
  2496  0097  3062               	movlw	(_User1)&0ffh
  2497  0098  1283               	bcf	status, 5	;RP0=0, select bank0
  2498  0099  1303               	bcf	status, 6	;RP1=0, select bank0
  2499  009A  00DD               	movwf	(??_main+0)+0
  2500  009B  085D               	movf	(??_main+0)+0,w
  2501  009C  00C8               	movwf	(?_strcmp)
  2502  009D  30C3               	movlw	(_card_store)&0ffh
  2503  009E  160A  118A  247B   	fcall	_strcmp
              120A  118A         
  2504  00A3  1283               	bcf	status, 5	;RP0=0, select bank0
  2505  00A4  1303               	bcf	status, 6	;RP1=0, select bank0
  2506  00A5  0849               	movf	((1+(?_strcmp))),w
  2507  00A6  0448               	iorwf	((0+(?_strcmp))),w
  2508  00A7  1D03               	skipz
  2509  00A8  28AA               	goto	u3781
  2510  00A9  28AB               	goto	u3780
  2511  00AA                     u3781:
  2512  00AA  28B7               	goto	l4798
  2513  00AB                     u3780:
  2514                           	line	248
  2515                           	
  2516  00AB                     l4794:	
  2517                           ;Main.c: 247: {
  2518                           ;Main.c: 248: User=1;
  2519  00AB  3001               	movlw	low(01h)
  2520  00AC  00A6               	movwf	(_User)
  2521  00AD  3000               	movlw	high(01h)
  2522  00AE  00A7               	movwf	((_User))+1
  2523                           	line	249
  2524                           	
  2525  00AF                     l4796:	
  2526                           ;Main.c: 249: card_store[0]=0;
  2527  00AF  1003               	clrc
  2528  00B0  3000               	movlw	0
  2529  00B1  1803               	btfsc	status,0
  2530  00B2  3001               	movlw	1
  2531  00B3  1683               	bsf	status, 5	;RP0=1, select bank1
  2532  00B4  1303               	bcf	status, 6	;RP1=0, select bank1
  2533  00B5  00C3               	movwf	(_card_store)^080h
  2534                           	line	250
  2535                           ;Main.c: 250: }
  2536  00B6  2E60               	goto	l5018
  2537                           	line	251
  2538                           	
  2539  00B7                     l1160:	
  2540                           	
  2541  00B7                     l4798:	
  2542                           ;Main.c: 251: else if(strcmp(card_store,User2)==0)
  2543  00B7  30D2               	movlw	(_User2)&0ffh
  2544  00B8  1283               	bcf	status, 5	;RP0=0, select bank0
  2545  00B9  00DD               	movwf	(??_main+0)+0
  2546  00BA  085D               	movf	(??_main+0)+0,w
  2547  00BB  00C8               	movwf	(?_strcmp)
  2548  00BC  30C3               	movlw	(_card_store)&0ffh
  2549  00BD  160A  118A  247B   	fcall	_strcmp
              120A  118A         
  2550  00C2  1283               	bcf	status, 5	;RP0=0, select bank0
  2551  00C3  1303               	bcf	status, 6	;RP1=0, select bank0
  2552  00C4  0849               	movf	((1+(?_strcmp))),w
  2553  00C5  0448               	iorwf	((0+(?_strcmp))),w
  2554  00C6  1D03               	skipz
  2555  00C7  28C9               	goto	u3791
  2556  00C8  28CA               	goto	u3790
  2557  00C9                     u3791:
  2558  00C9  28D6               	goto	l4804
  2559  00CA                     u3790:
  2560                           	line	253
  2561                           	
  2562  00CA                     l4800:	
  2563                           ;Main.c: 252: {
  2564                           ;Main.c: 253: User=2;
  2565  00CA  3002               	movlw	low(02h)
  2566  00CB  00A6               	movwf	(_User)
  2567  00CC  3000               	movlw	high(02h)
  2568  00CD  00A7               	movwf	((_User))+1
  2569                           	line	254
  2570                           	
  2571  00CE                     l4802:	
  2572                           ;Main.c: 254: card_store[0]=0;
  2573  00CE  1003               	clrc
  2574  00CF  3000               	movlw	0
  2575  00D0  1803               	btfsc	status,0
  2576  00D1  3001               	movlw	1
  2577  00D2  1683               	bsf	status, 5	;RP0=1, select bank1
  2578  00D3  1303               	bcf	status, 6	;RP1=0, select bank1
  2579  00D4  00C3               	movwf	(_card_store)^080h
  2580                           	line	255
  2581                           ;Main.c: 255: }
  2582  00D5  2E60               	goto	l5018
  2583                           	line	256
  2584                           	
  2585  00D6                     l1162:	
  2586                           	
  2587  00D6                     l4804:	
  2588                           ;Main.c: 256: else if(strcmp(card_store,User3)==0)
  2589  00D6  30DF               	movlw	(_User3)&0ffh
  2590  00D7  1283               	bcf	status, 5	;RP0=0, select bank0
  2591  00D8  00DD               	movwf	(??_main+0)+0
  2592  00D9  085D               	movf	(??_main+0)+0,w
  2593  00DA  00C8               	movwf	(?_strcmp)
  2594  00DB  30C3               	movlw	(_card_store)&0ffh
  2595  00DC  160A  118A  247B   	fcall	_strcmp
              120A  118A         
  2596  00E1  1283               	bcf	status, 5	;RP0=0, select bank0
  2597  00E2  1303               	bcf	status, 6	;RP1=0, select bank0
  2598  00E3  0849               	movf	((1+(?_strcmp))),w
  2599  00E4  0448               	iorwf	((0+(?_strcmp))),w
  2600  00E5  1D03               	skipz
  2601  00E6  28E8               	goto	u3801
  2602  00E7  28E9               	goto	u3800
  2603  00E8                     u3801:
  2604  00E8  2E60               	goto	l5018
  2605  00E9                     u3800:
  2606                           	line	258
  2607                           	
  2608  00E9                     l4806:	
  2609                           ;Main.c: 257: {
  2610                           ;Main.c: 258: User=3;
  2611  00E9  3003               	movlw	low(03h)
  2612  00EA  00A6               	movwf	(_User)
  2613  00EB  3000               	movlw	high(03h)
  2614  00EC  00A7               	movwf	((_User))+1
  2615                           	line	259
  2616                           	
  2617  00ED                     l4808:	
  2618                           ;Main.c: 259: card_store[0]=0;
  2619  00ED  1003               	clrc
  2620  00EE  3000               	movlw	0
  2621  00EF  1803               	btfsc	status,0
  2622  00F0  3001               	movlw	1
  2623  00F1  1683               	bsf	status, 5	;RP0=1, select bank1
  2624  00F2  1303               	bcf	status, 6	;RP1=0, select bank1
  2625  00F3  00C3               	movwf	(_card_store)^080h
  2626  00F4  2E60               	goto	l5018
  2627                           	line	260
  2628                           	
  2629  00F5                     l1164:	
  2630  00F5  2E60               	goto	l5018
  2631                           	line	262
  2632                           	
  2633  00F6                     l1163:	
  2634  00F6  2E60               	goto	l5018
  2635                           	
  2636  00F7                     l1161:	
  2637                           ;Main.c: 260: }
  2638                           ;Main.c: 262: switch(User)
  2639  00F7  2E60               	goto	l5018
  2640                           	line	264
  2641                           ;Main.c: 263: {
  2642                           ;Main.c: 264: case 1:
  2643                           	
  2644  00F8                     l1166:	
  2645                           	line	266
  2646                           	
  2647  00F8                     l4810:	
  2648                           ;Main.c: 265: {
  2649                           ;Main.c: 266: ReadAmnt();
  2650  00F8  120A  158A  2447   	fcall	_ReadAmnt
              120A  118A         
  2651                           	line	267
  2652                           ;Main.c: 267: lcdcmd(0x80);
  2653  00FD  3080               	movlw	(080h)
  2654  00FE  160A  118A  252C   	fcall	_lcdcmd
              120A  118A         
  2655                           	line	268
  2656                           	
  2657  0103                     l4812:	
  2658                           ;Main.c: 268: lcdstring("USER1 AMOUNT:       ");
  2659  0103  30E6               	movlw	low(STR_36|8000h)
  2660  0104  1283               	bcf	status, 5	;RP0=0, select bank0
  2661  0105  1303               	bcf	status, 6	;RP1=0, select bank0
  2662  0106  00CF               	movwf	(?_lcdstring)
  2663  0107  3098               	movlw	high(STR_36|8000h)
  2664  0108  00D0               	movwf	((?_lcdstring))+1
  2665  0109  160A  118A  24D2   	fcall	_lcdstring
              120A  118A         
  2666                           	line	269
  2667                           	
  2668  010E                     l4814:	
  2669                           ;Main.c: 269: DisplayAmnt(0X8D,User1amt);
  2670  010E  1283               	bcf	status, 5	;RP0=0, select bank0
  2671  010F  1303               	bcf	status, 6	;RP1=0, select bank0
  2672  0110  0829               	movf	(_User1amt+1),w
  2673  0111  01D9               	clrf	(?_DisplayAmnt+1)
  2674  0112  07D9               	addwf	(?_DisplayAmnt+1)
  2675  0113  0828               	movf	(_User1amt),w
  2676  0114  01D8               	clrf	(?_DisplayAmnt)
  2677  0115  07D8               	addwf	(?_DisplayAmnt)
  2678                           
  2679  0116  308D               	movlw	(08Dh)
  2680  0117  120A  118A  270A   	fcall	_DisplayAmnt
              120A  118A         
  2681                           	line	270
  2682                           ;Main.c: 270: lcdcmd(0xC0);
  2683  011C  30C0               	movlw	(0C0h)
  2684  011D  160A  118A  252C   	fcall	_lcdcmd
              120A  118A         
  2685                           	line	271
  2686                           	
  2687  0122                     l4816:	
  2688                           ;Main.c: 271: lcdstring("RISE:   Kg          ");
  2689  0122  30BC               	movlw	low(STR_37|8000h)
  2690  0123  1283               	bcf	status, 5	;RP0=0, select bank0
  2691  0124  1303               	bcf	status, 6	;RP1=0, select bank0
  2692  0125  00CF               	movwf	(?_lcdstring)
  2693  0126  3098               	movlw	high(STR_37|8000h)
  2694  0127  00D0               	movwf	((?_lcdstring))+1
  2695  0128  160A  118A  24D2   	fcall	_lcdstring
              120A  118A         
  2696                           	line	272
  2697                           	
  2698  012D                     l4818:	
  2699                           ;Main.c: 272: DisplayRise(0XC5,User1Rise);
  2700  012D  1283               	bcf	status, 5	;RP0=0, select bank0
  2701  012E  1303               	bcf	status, 6	;RP1=0, select bank0
  2702  012F  0833               	movf	(_User1Rise),w
  2703  0130  00DD               	movwf	(??_main+0)+0
  2704  0131  085D               	movf	(??_main+0)+0,w
  2705  0132  00D8               	movwf	(?_DisplayRise)
  2706  0133  30C5               	movlw	(0C5h)
  2707  0134  120A  158A  2018   	fcall	_DisplayRise
              120A  118A         
  2708                           	line	273
  2709                           ;Main.c: 273: lcdcmd(0x94);
  2710  0139  3094               	movlw	(094h)
  2711  013A  160A  118A  252C   	fcall	_lcdcmd
              120A  118A         
  2712                           	line	274
  2713                           	
  2714  013F                     l4820:	
  2715                           ;Main.c: 274: lcdstring("SUGAR:   Kg         ");
  2716  013F  30D1               	movlw	low(STR_38|8000h)
  2717  0140  1283               	bcf	status, 5	;RP0=0, select bank0
  2718  0141  1303               	bcf	status, 6	;RP1=0, select bank0
  2719  0142  00CF               	movwf	(?_lcdstring)
  2720  0143  3098               	movlw	high(STR_38|8000h)
  2721  0144  00D0               	movwf	((?_lcdstring))+1
  2722  0145  160A  118A  24D2   	fcall	_lcdstring
              120A  118A         
  2723                           	line	275
  2724                           	
  2725  014A                     l4822:	
  2726                           ;Main.c: 275: DisplaySugar(0x9A,User1Sugar);
  2727  014A  1283               	bcf	status, 5	;RP0=0, select bank0
  2728  014B  1303               	bcf	status, 6	;RP1=0, select bank0
  2729  014C  0834               	movf	(_User1Sugar),w
  2730  014D  00DD               	movwf	(??_main+0)+0
  2731  014E  085D               	movf	(??_main+0)+0,w
  2732  014F  00D8               	movwf	(?_DisplaySugar)
  2733  0150  309A               	movlw	(09Ah)
  2734  0151  160A  118A  27AC   	fcall	_DisplaySugar
              120A  118A         
  2735                           	line	276
  2736                           ;Main.c: 276: lcdcmd(0xD4);
  2737  0156  30D4               	movlw	(0D4h)
  2738  0157  160A  118A  252C   	fcall	_lcdcmd
              120A  118A         
  2739                           	line	277
  2740                           	
  2741  015C                     l4824:	
  2742                           ;Main.c: 277: lcdstring("KEROSENE:   Lts     ");
  2743  015C  303A               	movlw	low(STR_39|8000h)
  2744  015D  1283               	bcf	status, 5	;RP0=0, select bank0
  2745  015E  1303               	bcf	status, 6	;RP1=0, select bank0
  2746  015F  00CF               	movwf	(?_lcdstring)
  2747  0160  3099               	movlw	high(STR_39|8000h)
  2748  0161  00D0               	movwf	((?_lcdstring))+1
  2749  0162  160A  118A  24D2   	fcall	_lcdstring
              120A  118A         
  2750                           	line	278
  2751                           	
  2752  0167                     l4826:	
  2753                           ;Main.c: 278: DisplayKerosene(0XDD,User1Kerosene);
  2754  0167  1283               	bcf	status, 5	;RP0=0, select bank0
  2755  0168  1303               	bcf	status, 6	;RP1=0, select bank0
  2756  0169  0832               	movf	(_User1Kerosene),w
  2757  016A  00DD               	movwf	(??_main+0)+0
  2758  016B  085D               	movf	(??_main+0)+0,w
  2759  016C  00D8               	movwf	(?_DisplayKerosene)
  2760  016D  30DD               	movlw	(0DDh)
  2761  016E  120A  158A  206C   	fcall	_DisplayKerosene
              120A  118A         
  2762                           	line	279
  2763                           	
  2764  0173                     l4828:	
  2765                           ;Main.c: 279: _delay((unsigned long)((8000)*(20000000/4000.0)));
  2766                           	opt asmopt_off
  2767  0173  30CB               movlw  203
  2768  0174  1283               	bcf	status, 5	;RP0=0, select bank0
  2769  0175  1303               	bcf	status, 6	;RP1=0, select bank0
  2770  0176  00DF               movwf	((??_main+0)+0+2),f
  2771  0177  3023               movlw	35
  2772  0178  00DE               movwf	((??_main+0)+0+1),f
  2773  0179  3009               	movlw	9
  2774  017A  00DD               movwf	((??_main+0)+0),f
  2775  017B                     u3877:
  2776  017B  0BDD               	decfsz	((??_main+0)+0),f
  2777  017C  297B               	goto	u3877
  2778  017D  0BDE               	decfsz	((??_main+0)+0+1),f
  2779  017E  297B               	goto	u3877
  2780  017F  0BDF               	decfsz	((??_main+0)+0+2),f
  2781  0180  297B               	goto	u3877
  2782  0181  0064               	clrwdt
  2783                           opt asmopt_on
  2784                           
  2785                           	line	280
  2786                           	
  2787  0182                     l4830:	
  2788                           ;Main.c: 280: RiseStock=RiseStock-User1Rise;
  2789  0182  1283               	bcf	status, 5	;RP0=0, select bank0
  2790  0183  1303               	bcf	status, 6	;RP1=0, select bank0
  2791  0184  0833               	movf	(_User1Rise),w
  2792  0185  00DD               	movwf	(??_main+0)+0
  2793  0186  01DE               	clrf	(??_main+0)+0+1
  2794  0187  09DD               	comf	(??_main+0)+0,f
  2795  0188  09DE               	comf	(??_main+0)+1,f
  2796  0189  0ADD               	incf	(??_main+0)+0,f
  2797  018A  1903               	skipnz
  2798  018B  0ADE               	incf	(??_main+0)+1,f
  2799  018C  0822               	movf	(_RiseStock),w
  2800  018D  075D               	addwf	0+(??_main+0)+0,w
  2801  018E  00A2               	movwf	(_RiseStock)
  2802  018F  0823               	movf	(_RiseStock+1),w
  2803  0190  1803               	skipnc
  2804  0191  0A23               	incf	(_RiseStock+1),w
  2805  0192  075E               	addwf	1+(??_main+0)+0,w
  2806  0193  00A3               	movwf	1+(_RiseStock)
  2807                           	line	281
  2808                           	
  2809  0194                     l4832:	
  2810                           ;Main.c: 281: SugarStock=SugarStock-User1Sugar;
  2811  0194  0834               	movf	(_User1Sugar),w
  2812  0195  00DD               	movwf	(??_main+0)+0
  2813  0196  01DE               	clrf	(??_main+0)+0+1
  2814  0197  09DD               	comf	(??_main+0)+0,f
  2815  0198  09DE               	comf	(??_main+0)+1,f
  2816  0199  0ADD               	incf	(??_main+0)+0,f
  2817  019A  1903               	skipnz
  2818  019B  0ADE               	incf	(??_main+0)+1,f
  2819  019C  0824               	movf	(_SugarStock),w
  2820  019D  075D               	addwf	0+(??_main+0)+0,w
  2821  019E  00A4               	movwf	(_SugarStock)
  2822  019F  0825               	movf	(_SugarStock+1),w
  2823  01A0  1803               	skipnc
  2824  01A1  0A25               	incf	(_SugarStock+1),w
  2825  01A2  075E               	addwf	1+(??_main+0)+0,w
  2826  01A3  00A5               	movwf	1+(_SugarStock)
  2827                           	line	282
  2828                           	
  2829  01A4                     l4834:	
  2830                           ;Main.c: 282: KeroseneStock=KeroseneStock-User1Kerosene;
  2831  01A4  0832               	movf	(_User1Kerosene),w
  2832  01A5  00DD               	movwf	(??_main+0)+0
  2833  01A6  01DE               	clrf	(??_main+0)+0+1
  2834  01A7  09DD               	comf	(??_main+0)+0,f
  2835  01A8  09DE               	comf	(??_main+0)+1,f
  2836  01A9  0ADD               	incf	(??_main+0)+0,f
  2837  01AA  1903               	skipnz
  2838  01AB  0ADE               	incf	(??_main+0)+1,f
  2839  01AC  0820               	movf	(_KeroseneStock),w
  2840  01AD  075D               	addwf	0+(??_main+0)+0,w
  2841  01AE  00A0               	movwf	(_KeroseneStock)
  2842  01AF  0821               	movf	(_KeroseneStock+1),w
  2843  01B0  1803               	skipnc
  2844  01B1  0A21               	incf	(_KeroseneStock+1),w
  2845  01B2  075E               	addwf	1+(??_main+0)+0,w
  2846  01B3  00A1               	movwf	1+(_KeroseneStock)
  2847                           	line	283
  2848                           	
  2849  01B4                     l4836:	
  2850                           ;Main.c: 283: eeprom_write(24,RiseStock/100);
  2851  01B4  3064               	movlw	low(064h)
  2852  01B5  00CE               	movwf	(?___lwdiv)
  2853  01B6  3000               	movlw	high(064h)
  2854  01B7  00CF               	movwf	((?___lwdiv))+1
  2855  01B8  0823               	movf	(_RiseStock+1),w
  2856  01B9  01D1               	clrf	1+(?___lwdiv)+02h
  2857  01BA  07D1               	addwf	1+(?___lwdiv)+02h
  2858  01BB  0822               	movf	(_RiseStock),w
  2859  01BC  01D0               	clrf	0+(?___lwdiv)+02h
  2860  01BD  07D0               	addwf	0+(?___lwdiv)+02h
  2861                           
  2862  01BE  160A  118A  275A   	fcall	___lwdiv
              120A  118A         
  2863  01C3  1283               	bcf	status, 5	;RP0=0, select bank0
  2864  01C4  1303               	bcf	status, 6	;RP1=0, select bank0
  2865  01C5  084E               	movf	(0+(?___lwdiv)),w
  2866  01C6  00DD               	movwf	(??_main+0)+0
  2867  01C7  085D               	movf	(??_main+0)+0,w
  2868  01C8  00D8               	movwf	(?_eeprom_write)
  2869  01C9  3018               	movlw	(018h)
  2870  01CA  160A  118A  258C   	fcall	_eeprom_write
              120A  118A         
  2871                           	line	284
  2872                           	
  2873  01CF                     l4838:	
  2874                           ;Main.c: 284: eeprom_write(25,RiseStock%100);
  2875  01CF  3064               	movlw	low(064h)
  2876  01D0  1283               	bcf	status, 5	;RP0=0, select bank0
  2877  01D1  1303               	bcf	status, 6	;RP1=0, select bank0
  2878  01D2  00C8               	movwf	(?___lwmod)
  2879  01D3  3000               	movlw	high(064h)
  2880  01D4  00C9               	movwf	((?___lwmod))+1
  2881  01D5  0823               	movf	(_RiseStock+1),w
  2882  01D6  01CB               	clrf	1+(?___lwmod)+02h
  2883  01D7  07CB               	addwf	1+(?___lwmod)+02h
  2884  01D8  0822               	movf	(_RiseStock),w
  2885  01D9  01CA               	clrf	0+(?___lwmod)+02h
  2886  01DA  07CA               	addwf	0+(?___lwmod)+02h
  2887                           
  2888  01DB  160A  118A  26CD   	fcall	___lwmod
              120A  118A         
  2889  01E0  1283               	bcf	status, 5	;RP0=0, select bank0
  2890  01E1  1303               	bcf	status, 6	;RP1=0, select bank0
  2891  01E2  0848               	movf	(0+(?___lwmod)),w
  2892  01E3  00DD               	movwf	(??_main+0)+0
  2893  01E4  085D               	movf	(??_main+0)+0,w
  2894  01E5  00D8               	movwf	(?_eeprom_write)
  2895  01E6  3019               	movlw	(019h)
  2896  01E7  160A  118A  258C   	fcall	_eeprom_write
              120A  118A         
  2897                           	line	285
  2898                           	
  2899  01EC                     l4840:	
  2900                           ;Main.c: 285: eeprom_write(26,SugarStock);
  2901  01EC  1283               	bcf	status, 5	;RP0=0, select bank0
  2902  01ED  1303               	bcf	status, 6	;RP1=0, select bank0
  2903  01EE  0824               	movf	(_SugarStock),w
  2904  01EF  00DD               	movwf	(??_main+0)+0
  2905  01F0  085D               	movf	(??_main+0)+0,w
  2906  01F1  00D8               	movwf	(?_eeprom_write)
  2907  01F2  301A               	movlw	(01Ah)
  2908  01F3  160A  118A  258C   	fcall	_eeprom_write
              120A  118A         
  2909                           	line	286
  2910                           	
  2911  01F8                     l4842:	
  2912                           ;Main.c: 286: eeprom_write(27,KeroseneStock);
  2913  01F8  1283               	bcf	status, 5	;RP0=0, select bank0
  2914  01F9  1303               	bcf	status, 6	;RP1=0, select bank0
  2915  01FA  0820               	movf	(_KeroseneStock),w
  2916  01FB  00DD               	movwf	(??_main+0)+0
  2917  01FC  085D               	movf	(??_main+0)+0,w
  2918  01FD  00D8               	movwf	(?_eeprom_write)
  2919  01FE  301B               	movlw	(01Bh)
  2920  01FF  160A  118A  258C   	fcall	_eeprom_write
              120A  118A         
  2921                           	line	287
  2922                           	
  2923  0204                     l4844:	
  2924                           ;Main.c: 287: User1amt = User1amt-50;
  2925  0204  1283               	bcf	status, 5	;RP0=0, select bank0
  2926  0205  1303               	bcf	status, 6	;RP1=0, select bank0
  2927  0206  0828               	movf	(_User1amt),w
  2928  0207  3ECE               	addlw	low(-50)
  2929  0208  00A8               	movwf	(_User1amt)
  2930  0209  0829               	movf	(_User1amt+1),w
  2931  020A  1803               	skipnc
  2932  020B  3E01               	addlw	1
  2933  020C  3EFF               	addlw	high(-50)
  2934  020D  00A9               	movwf	1+(_User1amt)
  2935                           	line	291
  2936                           	
  2937  020E                     l4846:	
  2938                           ;Main.c: 291: eeprom_write(0,User1amt/100);
  2939  020E  3064               	movlw	low(064h)
  2940  020F  00CF               	movwf	(?___awdiv)
  2941  0210  3000               	movlw	high(064h)
  2942  0211  00D0               	movwf	((?___awdiv))+1
  2943  0212  0829               	movf	(_User1amt+1),w
  2944  0213  01D2               	clrf	1+(?___awdiv)+02h
  2945  0214  07D2               	addwf	1+(?___awdiv)+02h
  2946  0215  0828               	movf	(_User1amt),w
  2947  0216  01D1               	clrf	0+(?___awdiv)+02h
  2948  0217  07D1               	addwf	0+(?___awdiv)+02h
  2949                           
  2950  0218  120A  158A  2320   	fcall	___awdiv
              120A  118A         
  2951  021D  1283               	bcf	status, 5	;RP0=0, select bank0
  2952  021E  1303               	bcf	status, 6	;RP1=0, select bank0
  2953  021F  084F               	movf	(0+(?___awdiv)),w
  2954  0220  00DD               	movwf	(??_main+0)+0
  2955  0221  085D               	movf	(??_main+0)+0,w
  2956  0222  00D8               	movwf	(?_eeprom_write)
  2957  0223  3000               	movlw	(0)
  2958  0224  160A  118A  258C   	fcall	_eeprom_write
              120A  118A         
  2959                           	line	292
  2960                           	
  2961  0229                     l4848:	
  2962                           ;Main.c: 292: eeprom_write(1,User1amt%100);
  2963  0229  3064               	movlw	low(064h)
  2964  022A  1283               	bcf	status, 5	;RP0=0, select bank0
  2965  022B  1303               	bcf	status, 6	;RP1=0, select bank0
  2966  022C  00C8               	movwf	(?___awmod)
  2967  022D  3000               	movlw	high(064h)
  2968  022E  00C9               	movwf	((?___awmod))+1
  2969  022F  0829               	movf	(_User1amt+1),w
  2970  0230  01CB               	clrf	1+(?___awmod)+02h
  2971  0231  07CB               	addwf	1+(?___awmod)+02h
  2972  0232  0828               	movf	(_User1amt),w
  2973  0233  01CA               	clrf	0+(?___awmod)+02h
  2974  0234  07CA               	addwf	0+(?___awmod)+02h
  2975                           
  2976  0235  120A  158A  21CF   	fcall	___awmod
              120A  118A         
  2977  023A  1283               	bcf	status, 5	;RP0=0, select bank0
  2978  023B  1303               	bcf	status, 6	;RP1=0, select bank0
  2979  023C  0848               	movf	(0+(?___awmod)),w
  2980  023D  00DD               	movwf	(??_main+0)+0
  2981  023E  085D               	movf	(??_main+0)+0,w
  2982  023F  00D8               	movwf	(?_eeprom_write)
  2983  0240  3001               	movlw	(01h)
  2984  0241  160A  118A  258C   	fcall	_eeprom_write
              120A  118A         
  2985                           	line	293
  2986                           	
  2987  0246                     l4850:	
  2988                           ;Main.c: 293: eeprom_write(2,User1Rise);
  2989  0246  1283               	bcf	status, 5	;RP0=0, select bank0
  2990  0247  1303               	bcf	status, 6	;RP1=0, select bank0
  2991  0248  0833               	movf	(_User1Rise),w
  2992  0249  00DD               	movwf	(??_main+0)+0
  2993  024A  085D               	movf	(??_main+0)+0,w
  2994  024B  00D8               	movwf	(?_eeprom_write)
  2995  024C  3002               	movlw	(02h)
  2996  024D  160A  118A  258C   	fcall	_eeprom_write
              120A  118A         
  2997                           	line	294
  2998                           	
  2999  0252                     l4852:	
  3000                           ;Main.c: 294: eeprom_write(3,User1Sugar);
  3001  0252  1283               	bcf	status, 5	;RP0=0, select bank0
  3002  0253  1303               	bcf	status, 6	;RP1=0, select bank0
  3003  0254  0834               	movf	(_User1Sugar),w
  3004  0255  00DD               	movwf	(??_main+0)+0
  3005  0256  085D               	movf	(??_main+0)+0,w
  3006  0257  00D8               	movwf	(?_eeprom_write)
  3007  0258  3003               	movlw	(03h)
  3008  0259  160A  118A  258C   	fcall	_eeprom_write
              120A  118A         
  3009                           	line	295
  3010                           	
  3011  025E                     l4854:	
  3012                           ;Main.c: 295: eeprom_write(4,User1Kerosene);
  3013  025E  1283               	bcf	status, 5	;RP0=0, select bank0
  3014  025F  1303               	bcf	status, 6	;RP1=0, select bank0
  3015  0260  0832               	movf	(_User1Kerosene),w
  3016  0261  00DD               	movwf	(??_main+0)+0
  3017  0262  085D               	movf	(??_main+0)+0,w
  3018  0263  00D8               	movwf	(?_eeprom_write)
  3019  0264  3004               	movlw	(04h)
  3020  0265  160A  118A  258C   	fcall	_eeprom_write
              120A  118A         
  3021                           	line	297
  3022                           	
  3023  026A                     l4856:	
  3024                           ;Main.c: 297: lcdcmd(0x01);
  3025  026A  3001               	movlw	(01h)
  3026  026B  160A  118A  252C   	fcall	_lcdcmd
              120A  118A         
  3027                           	line	298
  3028                           	
  3029  0270                     l4858:	
  3030                           ;Main.c: 298: lcdstring(" PLEASE KEEP YOUR");
  3031  0270  301F               	movlw	low(STR_40|8000h)
  3032  0271  1283               	bcf	status, 5	;RP0=0, select bank0
  3033  0272  1303               	bcf	status, 6	;RP1=0, select bank0
  3034  0273  00CF               	movwf	(?_lcdstring)
  3035  0274  309A               	movlw	high(STR_40|8000h)
  3036  0275  00D0               	movwf	((?_lcdstring))+1
  3037  0276  160A  118A  24D2   	fcall	_lcdstring
              120A  118A         
  3038                           	line	299
  3039                           	
  3040  027B                     l4860:	
  3041                           ;Main.c: 299: lcdcmd(0xC0);
  3042  027B  30C0               	movlw	(0C0h)
  3043  027C  160A  118A  252C   	fcall	_lcdcmd
              120A  118A         
  3044                           	line	300
  3045                           	
  3046  0281                     l4862:	
  3047                           ;Main.c: 300: lcdstring(" CAN ON KEROSENE ");
  3048  0281  30FB               	movlw	low(STR_41|8000h)
  3049  0282  1283               	bcf	status, 5	;RP0=0, select bank0
  3050  0283  1303               	bcf	status, 6	;RP1=0, select bank0
  3051  0284  00CF               	movwf	(?_lcdstring)
  3052  0285  3099               	movlw	high(STR_41|8000h)
  3053  0286  00D0               	movwf	((?_lcdstring))+1
  3054  0287  160A  118A  24D2   	fcall	_lcdstring
              120A  118A         
  3055                           	line	301
  3056                           	
  3057  028C                     l4864:	
  3058                           ;Main.c: 301: lcdcmd(0x94);
  3059  028C  3094               	movlw	(094h)
  3060  028D  160A  118A  252C   	fcall	_lcdcmd
              120A  118A         
  3061                           	line	302
  3062                           	
  3063  0292                     l4866:	
  3064                           ;Main.c: 302: lcdstring("      VOLUE      ");
  3065  0292  30C5               	movlw	low(STR_42|8000h)
  3066  0293  1283               	bcf	status, 5	;RP0=0, select bank0
  3067  0294  1303               	bcf	status, 6	;RP1=0, select bank0
  3068  0295  00CF               	movwf	(?_lcdstring)
  3069  0296  3099               	movlw	high(STR_42|8000h)
  3070  0297  00D0               	movwf	((?_lcdstring))+1
  3071  0298  160A  118A  24D2   	fcall	_lcdstring
              120A  118A         
  3072                           	line	303
  3073                           	
  3074  029D                     l4868:	
  3075                           ;Main.c: 303: _delay((unsigned long)((200)*(20000000/4000.0)));
  3076                           	opt asmopt_off
  3077  029D  3006               movlw  6
  3078  029E  1283               	bcf	status, 5	;RP0=0, select bank0
  3079  029F  1303               	bcf	status, 6	;RP1=0, select bank0
  3080  02A0  00DF               movwf	((??_main+0)+0+2),f
  3081  02A1  300E               movlw	14
  3082  02A2  00DE               movwf	((??_main+0)+0+1),f
  3083  02A3  30B0               	movlw	176
  3084  02A4  00DD               movwf	((??_main+0)+0),f
  3085  02A5                     u3887:
  3086  02A5  0BDD               	decfsz	((??_main+0)+0),f
  3087  02A6  2AA5               	goto	u3887
  3088  02A7  0BDE               	decfsz	((??_main+0)+0+1),f
  3089  02A8  2AA5               	goto	u3887
  3090  02A9  0BDF               	decfsz	((??_main+0)+0+2),f
  3091  02AA  2AA5               	goto	u3887
  3092                           opt asmopt_on
  3093                           
  3094                           	line	304
  3095                           	
  3096  02AB                     l4870:	
  3097                           ;Main.c: 304: RC4 = 0;
  3098  02AB  1283               	bcf	status, 5	;RP0=0, select bank0
  3099  02AC  1303               	bcf	status, 6	;RP1=0, select bank0
  3100  02AD  1207               	bcf	(60/8),(60)&7
  3101                           	line	305
  3102                           	
  3103  02AE                     l4872:	
  3104                           ;Main.c: 305: _delay((unsigned long)((5000)*(20000000/4000.0)));
  3105                           	opt asmopt_off
  3106  02AE  307F               movlw  127
  3107  02AF  00DF               movwf	((??_main+0)+0+2),f
  3108  02B0  3056               movlw	86
  3109  02B1  00DE               movwf	((??_main+0)+0+1),f
  3110  02B2  3084               	movlw	132
  3111  02B3  00DD               movwf	((??_main+0)+0),f
  3112  02B4                     u3897:
  3113  02B4  0BDD               	decfsz	((??_main+0)+0),f
  3114  02B5  2AB4               	goto	u3897
  3115  02B6  0BDE               	decfsz	((??_main+0)+0+1),f
  3116  02B7  2AB4               	goto	u3897
  3117  02B8  0BDF               	decfsz	((??_main+0)+0+2),f
  3118  02B9  2AB4               	goto	u3897
  3119  02BA  2ABB               	nop2
  3120                           opt asmopt_on
  3121                           
  3122                           	line	306
  3123                           	
  3124  02BB                     l4874:	
  3125                           ;Main.c: 306: RC4 = 1;
  3126  02BB  1283               	bcf	status, 5	;RP0=0, select bank0
  3127  02BC  1303               	bcf	status, 6	;RP1=0, select bank0
  3128  02BD  1607               	bsf	(60/8),(60)&7
  3129                           	line	307
  3130                           	
  3131  02BE                     l4876:	
  3132                           ;Main.c: 307: User=0;
  3133  02BE  3000               	movlw	low(0)
  3134  02BF  00A6               	movwf	(_User)
  3135  02C0  3000               	movlw	high(0)
  3136  02C1  00A7               	movwf	((_User))+1
  3137                           	line	308
  3138                           ;Main.c: 308: break;
  3139  02C2  2E71               	goto	l5020
  3140                           	line	310
  3141                           ;Main.c: 309: }
  3142                           ;Main.c: 310: case 2:
  3143                           	
  3144  02C3                     l1168:	
  3145                           	line	312
  3146                           	
  3147  02C3                     l4878:	
  3148                           ;Main.c: 311: {
  3149                           ;Main.c: 312: ReadAmnt();
  3150  02C3  120A  158A  2447   	fcall	_ReadAmnt
              120A  118A         
  3151                           	line	313
  3152                           ;Main.c: 313: lcdcmd(0x80);
  3153  02C8  3080               	movlw	(080h)
  3154  02C9  160A  118A  252C   	fcall	_lcdcmd
              120A  118A         
  3155                           	line	314
  3156                           	
  3157  02CE                     l4880:	
  3158                           ;Main.c: 314: lcdstring("USER2 AMOUNT:       ");
  3159  02CE  30FB               	movlw	low(STR_43|8000h)
  3160  02CF  1283               	bcf	status, 5	;RP0=0, select bank0
  3161  02D0  1303               	bcf	status, 6	;RP1=0, select bank0
  3162  02D1  00CF               	movwf	(?_lcdstring)
  3163  02D2  3098               	movlw	high(STR_43|8000h)
  3164  02D3  00D0               	movwf	((?_lcdstring))+1
  3165  02D4  160A  118A  24D2   	fcall	_lcdstring
              120A  118A         
  3166                           	line	315
  3167                           	
  3168  02D9                     l4882:	
  3169                           ;Main.c: 315: DisplayAmnt(0X8D,User2amt);
  3170  02D9  1283               	bcf	status, 5	;RP0=0, select bank0
  3171  02DA  1303               	bcf	status, 6	;RP1=0, select bank0
  3172  02DB  082B               	movf	(_User2amt+1),w
  3173  02DC  01D9               	clrf	(?_DisplayAmnt+1)
  3174  02DD  07D9               	addwf	(?_DisplayAmnt+1)
  3175  02DE  082A               	movf	(_User2amt),w
  3176  02DF  01D8               	clrf	(?_DisplayAmnt)
  3177  02E0  07D8               	addwf	(?_DisplayAmnt)
  3178                           
  3179  02E1  308D               	movlw	(08Dh)
  3180  02E2  120A  118A  270A   	fcall	_DisplayAmnt
              120A  118A         
  3181                           	line	316
  3182                           ;Main.c: 316: lcdcmd(0xC0);
  3183  02E7  30C0               	movlw	(0C0h)
  3184  02E8  160A  118A  252C   	fcall	_lcdcmd
              120A  118A         
  3185                           	line	317
  3186                           	
  3187  02ED                     l4884:	
  3188                           ;Main.c: 317: lcdstring("RISE:   Kg          ");
  3189  02ED  30BC               	movlw	low(STR_44|8000h)
  3190  02EE  1283               	bcf	status, 5	;RP0=0, select bank0
  3191  02EF  1303               	bcf	status, 6	;RP1=0, select bank0
  3192  02F0  00CF               	movwf	(?_lcdstring)
  3193  02F1  3098               	movlw	high(STR_44|8000h)
  3194  02F2  00D0               	movwf	((?_lcdstring))+1
  3195  02F3  160A  118A  24D2   	fcall	_lcdstring
              120A  118A         
  3196                           	line	318
  3197                           	
  3198  02F8                     l4886:	
  3199                           ;Main.c: 318: DisplayRise(0XC5,User2Rise);
  3200  02F8  1283               	bcf	status, 5	;RP0=0, select bank0
  3201  02F9  1303               	bcf	status, 6	;RP1=0, select bank0
  3202  02FA  0836               	movf	(_User2Rise),w
  3203  02FB  00DD               	movwf	(??_main+0)+0
  3204  02FC  085D               	movf	(??_main+0)+0,w
  3205  02FD  00D8               	movwf	(?_DisplayRise)
  3206  02FE  30C5               	movlw	(0C5h)
  3207  02FF  120A  158A  2018   	fcall	_DisplayRise
              120A  118A         
  3208                           	line	319
  3209                           ;Main.c: 319: lcdcmd(0x94);
  3210  0304  3094               	movlw	(094h)
  3211  0305  160A  118A  252C   	fcall	_lcdcmd
              120A  118A         
  3212                           	line	320
  3213                           	
  3214  030A                     l4888:	
  3215                           ;Main.c: 320: lcdstring("SUGAR:   Kg         ");
  3216  030A  30D1               	movlw	low(STR_45|8000h)
  3217  030B  1283               	bcf	status, 5	;RP0=0, select bank0
  3218  030C  1303               	bcf	status, 6	;RP1=0, select bank0
  3219  030D  00CF               	movwf	(?_lcdstring)
  3220  030E  3098               	movlw	high(STR_45|8000h)
  3221  030F  00D0               	movwf	((?_lcdstring))+1
  3222  0310  160A  118A  24D2   	fcall	_lcdstring
              120A  118A         
  3223                           	line	321
  3224                           	
  3225  0315                     l4890:	
  3226                           ;Main.c: 321: DisplaySugar(0x9A,User2Sugar);
  3227  0315  1283               	bcf	status, 5	;RP0=0, select bank0
  3228  0316  1303               	bcf	status, 6	;RP1=0, select bank0
  3229  0317  0837               	movf	(_User2Sugar),w
  3230  0318  00DD               	movwf	(??_main+0)+0
  3231  0319  085D               	movf	(??_main+0)+0,w
  3232  031A  00D8               	movwf	(?_DisplaySugar)
  3233  031B  309A               	movlw	(09Ah)
  3234  031C  160A  118A  27AC   	fcall	_DisplaySugar
              120A  118A         
  3235                           	line	322
  3236                           ;Main.c: 322: lcdcmd(0xD4);
  3237  0321  30D4               	movlw	(0D4h)
  3238  0322  160A  118A  252C   	fcall	_lcdcmd
              120A  118A         
  3239                           	line	323
  3240                           	
  3241  0327                     l4892:	
  3242                           ;Main.c: 323: lcdstring("KEROSENE:   Lts     ");
  3243  0327  303A               	movlw	low(STR_46|8000h)
  3244  0328  1283               	bcf	status, 5	;RP0=0, select bank0
  3245  0329  1303               	bcf	status, 6	;RP1=0, select bank0
  3246  032A  00CF               	movwf	(?_lcdstring)
  3247  032B  3099               	movlw	high(STR_46|8000h)
  3248  032C  00D0               	movwf	((?_lcdstring))+1
  3249  032D  160A  118A  24D2   	fcall	_lcdstring
              120A  118A         
  3250                           	line	324
  3251                           	
  3252  0332                     l4894:	
  3253                           ;Main.c: 324: DisplayKerosene(0XDD,User2Kerosene);
  3254  0332  1283               	bcf	status, 5	;RP0=0, select bank0
  3255  0333  1303               	bcf	status, 6	;RP1=0, select bank0
  3256  0334  0835               	movf	(_User2Kerosene),w
  3257  0335  00DD               	movwf	(??_main+0)+0
  3258  0336  085D               	movf	(??_main+0)+0,w
  3259  0337  00D8               	movwf	(?_DisplayKerosene)
  3260  0338  30DD               	movlw	(0DDh)
  3261  0339  120A  158A  206C   	fcall	_DisplayKerosene
              120A  118A         
  3262                           	line	325
  3263                           	
  3264  033E                     l4896:	
  3265                           ;Main.c: 325: _delay((unsigned long)((8000)*(20000000/4000.0)));
  3266                           	opt asmopt_off
  3267  033E  30CB               movlw  203
  3268  033F  1283               	bcf	status, 5	;RP0=0, select bank0
  3269  0340  1303               	bcf	status, 6	;RP1=0, select bank0
  3270  0341  00DF               movwf	((??_main+0)+0+2),f
  3271  0342  3023               movlw	35
  3272  0343  00DE               movwf	((??_main+0)+0+1),f
  3273  0344  3009               	movlw	9
  3274  0345  00DD               movwf	((??_main+0)+0),f
  3275  0346                     u3907:
  3276  0346  0BDD               	decfsz	((??_main+0)+0),f
  3277  0347  2B46               	goto	u3907
  3278  0348  0BDE               	decfsz	((??_main+0)+0+1),f
  3279  0349  2B46               	goto	u3907
  3280  034A  0BDF               	decfsz	((??_main+0)+0+2),f
  3281  034B  2B46               	goto	u3907
  3282  034C  0064               	clrwdt
  3283                           opt asmopt_on
  3284                           
  3285                           	line	326
  3286                           	
  3287  034D                     l4898:	
  3288                           ;Main.c: 326: RiseStock=RiseStock-User2Rise;
  3289  034D  1283               	bcf	status, 5	;RP0=0, select bank0
  3290  034E  1303               	bcf	status, 6	;RP1=0, select bank0
  3291  034F  0836               	movf	(_User2Rise),w
  3292  0350  00DD               	movwf	(??_main+0)+0
  3293  0351  01DE               	clrf	(??_main+0)+0+1
  3294  0352  09DD               	comf	(??_main+0)+0,f
  3295  0353  09DE               	comf	(??_main+0)+1,f
  3296  0354  0ADD               	incf	(??_main+0)+0,f
  3297  0355  1903               	skipnz
  3298  0356  0ADE               	incf	(??_main+0)+1,f
  3299  0357  0822               	movf	(_RiseStock),w
  3300  0358  075D               	addwf	0+(??_main+0)+0,w
  3301  0359  00A2               	movwf	(_RiseStock)
  3302  035A  0823               	movf	(_RiseStock+1),w
  3303  035B  1803               	skipnc
  3304  035C  0A23               	incf	(_RiseStock+1),w
  3305  035D  075E               	addwf	1+(??_main+0)+0,w
  3306  035E  00A3               	movwf	1+(_RiseStock)
  3307                           	line	327
  3308                           	
  3309  035F                     l4900:	
  3310                           ;Main.c: 327: SugarStock=SugarStock-User2Sugar;
  3311  035F  0837               	movf	(_User2Sugar),w
  3312  0360  00DD               	movwf	(??_main+0)+0
  3313  0361  01DE               	clrf	(??_main+0)+0+1
  3314  0362  09DD               	comf	(??_main+0)+0,f
  3315  0363  09DE               	comf	(??_main+0)+1,f
  3316  0364  0ADD               	incf	(??_main+0)+0,f
  3317  0365  1903               	skipnz
  3318  0366  0ADE               	incf	(??_main+0)+1,f
  3319  0367  0824               	movf	(_SugarStock),w
  3320  0368  075D               	addwf	0+(??_main+0)+0,w
  3321  0369  00A4               	movwf	(_SugarStock)
  3322  036A  0825               	movf	(_SugarStock+1),w
  3323  036B  1803               	skipnc
  3324  036C  0A25               	incf	(_SugarStock+1),w
  3325  036D  075E               	addwf	1+(??_main+0)+0,w
  3326  036E  00A5               	movwf	1+(_SugarStock)
  3327                           	line	328
  3328                           	
  3329  036F                     l4902:	
  3330                           ;Main.c: 328: KeroseneStock=KeroseneStock-User2Kerosene;
  3331  036F  0835               	movf	(_User2Kerosene),w
  3332  0370  00DD               	movwf	(??_main+0)+0
  3333  0371  01DE               	clrf	(??_main+0)+0+1
  3334  0372  09DD               	comf	(??_main+0)+0,f
  3335  0373  09DE               	comf	(??_main+0)+1,f
  3336  0374  0ADD               	incf	(??_main+0)+0,f
  3337  0375  1903               	skipnz
  3338  0376  0ADE               	incf	(??_main+0)+1,f
  3339  0377  0820               	movf	(_KeroseneStock),w
  3340  0378  075D               	addwf	0+(??_main+0)+0,w
  3341  0379  00A0               	movwf	(_KeroseneStock)
  3342  037A  0821               	movf	(_KeroseneStock+1),w
  3343  037B  1803               	skipnc
  3344  037C  0A21               	incf	(_KeroseneStock+1),w
  3345  037D  075E               	addwf	1+(??_main+0)+0,w
  3346  037E  00A1               	movwf	1+(_KeroseneStock)
  3347                           	line	329
  3348                           	
  3349  037F                     l4904:	
  3350                           ;Main.c: 329: eeprom_write(24,RiseStock/100);
  3351  037F  3064               	movlw	low(064h)
  3352  0380  00CE               	movwf	(?___lwdiv)
  3353  0381  3000               	movlw	high(064h)
  3354  0382  00CF               	movwf	((?___lwdiv))+1
  3355  0383  0823               	movf	(_RiseStock+1),w
  3356  0384  01D1               	clrf	1+(?___lwdiv)+02h
  3357  0385  07D1               	addwf	1+(?___lwdiv)+02h
  3358  0386  0822               	movf	(_RiseStock),w
  3359  0387  01D0               	clrf	0+(?___lwdiv)+02h
  3360  0388  07D0               	addwf	0+(?___lwdiv)+02h
  3361                           
  3362  0389  160A  118A  275A   	fcall	___lwdiv
              120A  118A         
  3363  038E  1283               	bcf	status, 5	;RP0=0, select bank0
  3364  038F  1303               	bcf	status, 6	;RP1=0, select bank0
  3365  0390  084E               	movf	(0+(?___lwdiv)),w
  3366  0391  00DD               	movwf	(??_main+0)+0
  3367  0392  085D               	movf	(??_main+0)+0,w
  3368  0393  00D8               	movwf	(?_eeprom_write)
  3369  0394  3018               	movlw	(018h)
  3370  0395  160A  118A  258C   	fcall	_eeprom_write
              120A  118A         
  3371                           	line	330
  3372                           	
  3373  039A                     l4906:	
  3374                           ;Main.c: 330: eeprom_write(25,RiseStock%100);
  3375  039A  3064               	movlw	low(064h)
  3376  039B  1283               	bcf	status, 5	;RP0=0, select bank0
  3377  039C  1303               	bcf	status, 6	;RP1=0, select bank0
  3378  039D  00C8               	movwf	(?___lwmod)
  3379  039E  3000               	movlw	high(064h)
  3380  039F  00C9               	movwf	((?___lwmod))+1
  3381  03A0  0823               	movf	(_RiseStock+1),w
  3382  03A1  01CB               	clrf	1+(?___lwmod)+02h
  3383  03A2  07CB               	addwf	1+(?___lwmod)+02h
  3384  03A3  0822               	movf	(_RiseStock),w
  3385  03A4  01CA               	clrf	0+(?___lwmod)+02h
  3386  03A5  07CA               	addwf	0+(?___lwmod)+02h
  3387                           
  3388  03A6  160A  118A  26CD   	fcall	___lwmod
              120A  118A         
  3389  03AB  1283               	bcf	status, 5	;RP0=0, select bank0
  3390  03AC  1303               	bcf	status, 6	;RP1=0, select bank0
  3391  03AD  0848               	movf	(0+(?___lwmod)),w
  3392  03AE  00DD               	movwf	(??_main+0)+0
  3393  03AF  085D               	movf	(??_main+0)+0,w
  3394  03B0  00D8               	movwf	(?_eeprom_write)
  3395  03B1  3019               	movlw	(019h)
  3396  03B2  160A  118A  258C   	fcall	_eeprom_write
              120A  118A         
  3397                           	line	331
  3398                           	
  3399  03B7                     l4908:	
  3400                           ;Main.c: 331: eeprom_write(26,SugarStock);
  3401  03B7  1283               	bcf	status, 5	;RP0=0, select bank0
  3402  03B8  1303               	bcf	status, 6	;RP1=0, select bank0
  3403  03B9  0824               	movf	(_SugarStock),w
  3404  03BA  00DD               	movwf	(??_main+0)+0
  3405  03BB  085D               	movf	(??_main+0)+0,w
  3406  03BC  00D8               	movwf	(?_eeprom_write)
  3407  03BD  301A               	movlw	(01Ah)
  3408  03BE  160A  118A  258C   	fcall	_eeprom_write
              120A  118A         
  3409                           	line	332
  3410                           	
  3411  03C3                     l4910:	
  3412                           ;Main.c: 332: eeprom_write(27,KeroseneStock);
  3413  03C3  1283               	bcf	status, 5	;RP0=0, select bank0
  3414  03C4  1303               	bcf	status, 6	;RP1=0, select bank0
  3415  03C5  0820               	movf	(_KeroseneStock),w
  3416  03C6  00DD               	movwf	(??_main+0)+0
  3417  03C7  085D               	movf	(??_main+0)+0,w
  3418  03C8  00D8               	movwf	(?_eeprom_write)
  3419  03C9  301B               	movlw	(01Bh)
  3420  03CA  160A  118A  258C   	fcall	_eeprom_write
              120A  118A         
  3421                           	line	333
  3422                           	
  3423  03CF                     l4912:	
  3424                           ;Main.c: 333: User2amt = User2amt-30;
  3425  03CF  1283               	bcf	status, 5	;RP0=0, select bank0
  3426  03D0  1303               	bcf	status, 6	;RP1=0, select bank0
  3427  03D1  082A               	movf	(_User2amt),w
  3428  03D2  3EE2               	addlw	low(-30)
  3429  03D3  00AA               	movwf	(_User2amt)
  3430  03D4  082B               	movf	(_User2amt+1),w
  3431  03D5  1803               	skipnc
  3432  03D6  3E01               	addlw	1
  3433  03D7  3EFF               	addlw	high(-30)
  3434  03D8  00AB               	movwf	1+(_User2amt)
  3435                           	line	337
  3436                           	
  3437  03D9                     l4914:	
  3438                           ;Main.c: 337: eeprom_write(8,User2amt/100);
  3439  03D9  3064               	movlw	low(064h)
  3440  03DA  00CF               	movwf	(?___awdiv)
  3441  03DB  3000               	movlw	high(064h)
  3442  03DC  00D0               	movwf	((?___awdiv))+1
  3443  03DD  082B               	movf	(_User2amt+1),w
  3444  03DE  01D2               	clrf	1+(?___awdiv)+02h
  3445  03DF  07D2               	addwf	1+(?___awdiv)+02h
  3446  03E0  082A               	movf	(_User2amt),w
  3447  03E1  01D1               	clrf	0+(?___awdiv)+02h
  3448  03E2  07D1               	addwf	0+(?___awdiv)+02h
  3449                           
  3450  03E3  120A  158A  2320   	fcall	___awdiv
              120A  118A         
  3451  03E8  1283               	bcf	status, 5	;RP0=0, select bank0
  3452  03E9  1303               	bcf	status, 6	;RP1=0, select bank0
  3453  03EA  084F               	movf	(0+(?___awdiv)),w
  3454  03EB  00DD               	movwf	(??_main+0)+0
  3455  03EC  085D               	movf	(??_main+0)+0,w
  3456  03ED  00D8               	movwf	(?_eeprom_write)
  3457  03EE  3008               	movlw	(08h)
  3458  03EF  160A  118A  258C   	fcall	_eeprom_write
              120A  118A         
  3459                           	line	338
  3460                           	
  3461  03F4                     l4916:	
  3462                           ;Main.c: 338: eeprom_write(9,User2amt%100);
  3463  03F4  3064               	movlw	low(064h)
  3464  03F5  1283               	bcf	status, 5	;RP0=0, select bank0
  3465  03F6  1303               	bcf	status, 6	;RP1=0, select bank0
  3466  03F7  00C8               	movwf	(?___awmod)
  3467  03F8  3000               	movlw	high(064h)
  3468  03F9  00C9               	movwf	((?___awmod))+1
  3469  03FA  082B               	movf	(_User2amt+1),w
  3470  03FB  01CB               	clrf	1+(?___awmod)+02h
  3471  03FC  07CB               	addwf	1+(?___awmod)+02h
  3472  03FD  082A               	movf	(_User2amt),w
  3473  03FE  01CA               	clrf	0+(?___awmod)+02h
  3474  03FF  07CA               	addwf	0+(?___awmod)+02h
  3475                           
  3476  0400  120A  158A  21CF   	fcall	___awmod
              120A  118A         
  3477  0405  1283               	bcf	status, 5	;RP0=0, select bank0
  3478  0406  1303               	bcf	status, 6	;RP1=0, select bank0
  3479  0407  0848               	movf	(0+(?___awmod)),w
  3480  0408  00DD               	movwf	(??_main+0)+0
  3481  0409  085D               	movf	(??_main+0)+0,w
  3482  040A  00D8               	movwf	(?_eeprom_write)
  3483  040B  3009               	movlw	(09h)
  3484  040C  160A  118A  258C   	fcall	_eeprom_write
              120A  118A         
  3485                           	line	339
  3486                           	
  3487  0411                     l4918:	
  3488                           ;Main.c: 339: eeprom_write(10,User2Rise);
  3489  0411  1283               	bcf	status, 5	;RP0=0, select bank0
  3490  0412  1303               	bcf	status, 6	;RP1=0, select bank0
  3491  0413  0836               	movf	(_User2Rise),w
  3492  0414  00DD               	movwf	(??_main+0)+0
  3493  0415  085D               	movf	(??_main+0)+0,w
  3494  0416  00D8               	movwf	(?_eeprom_write)
  3495  0417  300A               	movlw	(0Ah)
  3496  0418  160A  118A  258C   	fcall	_eeprom_write
              120A  118A         
  3497                           	line	340
  3498                           	
  3499  041D                     l4920:	
  3500                           ;Main.c: 340: eeprom_write(11,User2Sugar);
  3501  041D  1283               	bcf	status, 5	;RP0=0, select bank0
  3502  041E  1303               	bcf	status, 6	;RP1=0, select bank0
  3503  041F  0837               	movf	(_User2Sugar),w
  3504  0420  00DD               	movwf	(??_main+0)+0
  3505  0421  085D               	movf	(??_main+0)+0,w
  3506  0422  00D8               	movwf	(?_eeprom_write)
  3507  0423  300B               	movlw	(0Bh)
  3508  0424  160A  118A  258C   	fcall	_eeprom_write
              120A  118A         
  3509                           	line	341
  3510                           	
  3511  0429                     l4922:	
  3512                           ;Main.c: 341: eeprom_write(12,User2Kerosene);
  3513  0429  1283               	bcf	status, 5	;RP0=0, select bank0
  3514  042A  1303               	bcf	status, 6	;RP1=0, select bank0
  3515  042B  0835               	movf	(_User2Kerosene),w
  3516  042C  00DD               	movwf	(??_main+0)+0
  3517  042D  085D               	movf	(??_main+0)+0,w
  3518  042E  00D8               	movwf	(?_eeprom_write)
  3519  042F  300C               	movlw	(0Ch)
  3520  0430  160A  118A  258C   	fcall	_eeprom_write
              120A  118A         
  3521                           	line	343
  3522                           	
  3523  0435                     l4924:	
  3524                           ;Main.c: 343: lcdcmd(0x01);
  3525  0435  3001               	movlw	(01h)
  3526  0436  160A  118A  252C   	fcall	_lcdcmd
              120A  118A         
  3527                           	line	344
  3528                           	
  3529  043B                     l4926:	
  3530                           ;Main.c: 344: lcdstring(" PLEASE KEEP YOUR");
  3531  043B  301F               	movlw	low(STR_47|8000h)
  3532  043C  1283               	bcf	status, 5	;RP0=0, select bank0
  3533  043D  1303               	bcf	status, 6	;RP1=0, select bank0
  3534  043E  00CF               	movwf	(?_lcdstring)
  3535  043F  309A               	movlw	high(STR_47|8000h)
  3536  0440  00D0               	movwf	((?_lcdstring))+1
  3537  0441  160A  118A  24D2   	fcall	_lcdstring
              120A  118A         
  3538                           	line	345
  3539                           	
  3540  0446                     l4928:	
  3541                           ;Main.c: 345: lcdcmd(0xC0);
  3542  0446  30C0               	movlw	(0C0h)
  3543  0447  160A  118A  252C   	fcall	_lcdcmd
              120A  118A         
  3544                           	line	346
  3545                           	
  3546  044C                     l4930:	
  3547                           ;Main.c: 346: lcdstring(" CAN ON KEROSENE ");
  3548  044C  30FB               	movlw	low(STR_48|8000h)
  3549  044D  1283               	bcf	status, 5	;RP0=0, select bank0
  3550  044E  1303               	bcf	status, 6	;RP1=0, select bank0
  3551  044F  00CF               	movwf	(?_lcdstring)
  3552  0450  3099               	movlw	high(STR_48|8000h)
  3553  0451  00D0               	movwf	((?_lcdstring))+1
  3554  0452  160A  118A  24D2   	fcall	_lcdstring
              120A  118A         
  3555                           	line	347
  3556                           	
  3557  0457                     l4932:	
  3558                           ;Main.c: 347: lcdcmd(0x94);
  3559  0457  3094               	movlw	(094h)
  3560  0458  160A  118A  252C   	fcall	_lcdcmd
              120A  118A         
  3561                           	line	348
  3562                           	
  3563  045D                     l4934:	
  3564                           ;Main.c: 348: lcdstring("      VOLUE      ");
  3565  045D  30C5               	movlw	low(STR_49|8000h)
  3566  045E  1283               	bcf	status, 5	;RP0=0, select bank0
  3567  045F  1303               	bcf	status, 6	;RP1=0, select bank0
  3568  0460  00CF               	movwf	(?_lcdstring)
  3569  0461  3099               	movlw	high(STR_49|8000h)
  3570  0462  00D0               	movwf	((?_lcdstring))+1
  3571  0463  160A  118A  24D2   	fcall	_lcdstring
              120A  118A         
  3572                           	line	349
  3573                           	
  3574  0468                     l4936:	
  3575                           ;Main.c: 349: _delay((unsigned long)((200)*(20000000/4000.0)));
  3576                           	opt asmopt_off
  3577  0468  3006               movlw  6
  3578  0469  1283               	bcf	status, 5	;RP0=0, select bank0
  3579  046A  1303               	bcf	status, 6	;RP1=0, select bank0
  3580  046B  00DF               movwf	((??_main+0)+0+2),f
  3581  046C  300E               movlw	14
  3582  046D  00DE               movwf	((??_main+0)+0+1),f
  3583  046E  30B0               	movlw	176
  3584  046F  00DD               movwf	((??_main+0)+0),f
  3585  0470                     u3917:
  3586  0470  0BDD               	decfsz	((??_main+0)+0),f
  3587  0471  2C70               	goto	u3917
  3588  0472  0BDE               	decfsz	((??_main+0)+0+1),f
  3589  0473  2C70               	goto	u3917
  3590  0474  0BDF               	decfsz	((??_main+0)+0+2),f
  3591  0475  2C70               	goto	u3917
  3592                           opt asmopt_on
  3593                           
  3594                           	line	350
  3595                           	
  3596  0476                     l4938:	
  3597                           ;Main.c: 350: RC4 = 0;
  3598  0476  1283               	bcf	status, 5	;RP0=0, select bank0
  3599  0477  1303               	bcf	status, 6	;RP1=0, select bank0
  3600  0478  1207               	bcf	(60/8),(60)&7
  3601                           	line	351
  3602                           	
  3603  0479                     l4940:	
  3604                           ;Main.c: 351: _delay((unsigned long)((8000)*(20000000/4000.0)));
  3605                           	opt asmopt_off
  3606  0479  30CB               movlw  203
  3607  047A  00DF               movwf	((??_main+0)+0+2),f
  3608  047B  3023               movlw	35
  3609  047C  00DE               movwf	((??_main+0)+0+1),f
  3610  047D  3009               	movlw	9
  3611  047E  00DD               movwf	((??_main+0)+0),f
  3612  047F                     u3927:
  3613  047F  0BDD               	decfsz	((??_main+0)+0),f
  3614  0480  2C7F               	goto	u3927
  3615  0481  0BDE               	decfsz	((??_main+0)+0+1),f
  3616  0482  2C7F               	goto	u3927
  3617  0483  0BDF               	decfsz	((??_main+0)+0+2),f
  3618  0484  2C7F               	goto	u3927
  3619  0485  0064               	clrwdt
  3620                           opt asmopt_on
  3621                           
  3622                           	line	352
  3623                           	
  3624  0486                     l4942:	
  3625                           ;Main.c: 352: RC4 = 1;
  3626  0486  1283               	bcf	status, 5	;RP0=0, select bank0
  3627  0487  1303               	bcf	status, 6	;RP1=0, select bank0
  3628  0488  1607               	bsf	(60/8),(60)&7
  3629                           	line	353
  3630                           	
  3631  0489                     l4944:	
  3632                           ;Main.c: 353: User=0;
  3633  0489  3000               	movlw	low(0)
  3634  048A  00A6               	movwf	(_User)
  3635  048B  3000               	movlw	high(0)
  3636  048C  00A7               	movwf	((_User))+1
  3637                           	line	354
  3638                           ;Main.c: 354: break;
  3639  048D  2E71               	goto	l5020
  3640                           	line	356
  3641                           ;Main.c: 355: }
  3642                           ;Main.c: 356: case 3:
  3643                           	
  3644  048E                     l1169:	
  3645                           	line	358
  3646                           	
  3647  048E                     l4946:	
  3648                           ;Main.c: 357: {
  3649                           ;Main.c: 358: ReadAmnt();
  3650  048E  120A  158A  2447   	fcall	_ReadAmnt
              120A  118A         
  3651                           	line	359
  3652                           ;Main.c: 359: lcdcmd(0x80);
  3653  0493  3080               	movlw	(080h)
  3654  0494  160A  118A  252C   	fcall	_lcdcmd
              120A  118A         
  3655                           	line	360
  3656                           	
  3657  0499                     l4948:	
  3658                           ;Main.c: 360: lcdstring("USER3 AMOUNT:       ");
  3659  0499  3010               	movlw	low(STR_50|8000h)
  3660  049A  1283               	bcf	status, 5	;RP0=0, select bank0
  3661  049B  1303               	bcf	status, 6	;RP1=0, select bank0
  3662  049C  00CF               	movwf	(?_lcdstring)
  3663  049D  3099               	movlw	high(STR_50|8000h)
  3664  049E  00D0               	movwf	((?_lcdstring))+1
  3665  049F  160A  118A  24D2   	fcall	_lcdstring
              120A  118A         
  3666                           	line	361
  3667                           	
  3668  04A4                     l4950:	
  3669                           ;Main.c: 361: DisplayAmnt(0X8D,User3amt);
  3670  04A4  1283               	bcf	status, 5	;RP0=0, select bank0
  3671  04A5  1303               	bcf	status, 6	;RP1=0, select bank0
  3672  04A6  082D               	movf	(_User3amt+1),w
  3673  04A7  01D9               	clrf	(?_DisplayAmnt+1)
  3674  04A8  07D9               	addwf	(?_DisplayAmnt+1)
  3675  04A9  082C               	movf	(_User3amt),w
  3676  04AA  01D8               	clrf	(?_DisplayAmnt)
  3677  04AB  07D8               	addwf	(?_DisplayAmnt)
  3678                           
  3679  04AC  308D               	movlw	(08Dh)
  3680  04AD  120A  118A  270A   	fcall	_DisplayAmnt
              120A  118A         
  3681                           	line	362
  3682                           ;Main.c: 362: lcdcmd(0xC0);
  3683  04B2  30C0               	movlw	(0C0h)
  3684  04B3  160A  118A  252C   	fcall	_lcdcmd
              120A  118A         
  3685                           	line	363
  3686                           	
  3687  04B8                     l4952:	
  3688                           ;Main.c: 363: lcdstring("RISE:   Kg          ");
  3689  04B8  30BC               	movlw	low(STR_51|8000h)
  3690  04B9  1283               	bcf	status, 5	;RP0=0, select bank0
  3691  04BA  1303               	bcf	status, 6	;RP1=0, select bank0
  3692  04BB  00CF               	movwf	(?_lcdstring)
  3693  04BC  3098               	movlw	high(STR_51|8000h)
  3694  04BD  00D0               	movwf	((?_lcdstring))+1
  3695  04BE  160A  118A  24D2   	fcall	_lcdstring
              120A  118A         
  3696                           	line	364
  3697                           	
  3698  04C3                     l4954:	
  3699                           ;Main.c: 364: DisplayRise(0XC5,User3Rise);
  3700  04C3  1283               	bcf	status, 5	;RP0=0, select bank0
  3701  04C4  1303               	bcf	status, 6	;RP1=0, select bank0
  3702  04C5  0839               	movf	(_User3Rise),w
  3703  04C6  00DD               	movwf	(??_main+0)+0
  3704  04C7  085D               	movf	(??_main+0)+0,w
  3705  04C8  00D8               	movwf	(?_DisplayRise)
  3706  04C9  30C5               	movlw	(0C5h)
  3707  04CA  120A  158A  2018   	fcall	_DisplayRise
              120A  118A         
  3708                           	line	365
  3709                           ;Main.c: 365: lcdcmd(0x94);
  3710  04CF  3094               	movlw	(094h)
  3711  04D0  160A  118A  252C   	fcall	_lcdcmd
              120A  118A         
  3712                           	line	366
  3713                           	
  3714  04D5                     l4956:	
  3715                           ;Main.c: 366: lcdstring("SUGAR:   Kg         ");
  3716  04D5  30D1               	movlw	low(STR_52|8000h)
  3717  04D6  1283               	bcf	status, 5	;RP0=0, select bank0
  3718  04D7  1303               	bcf	status, 6	;RP1=0, select bank0
  3719  04D8  00CF               	movwf	(?_lcdstring)
  3720  04D9  3098               	movlw	high(STR_52|8000h)
  3721  04DA  00D0               	movwf	((?_lcdstring))+1
  3722  04DB  160A  118A  24D2   	fcall	_lcdstring
              120A  118A         
  3723                           	line	367
  3724                           	
  3725  04E0                     l4958:	
  3726                           ;Main.c: 367: DisplaySugar(0x9A,User3Sugar);
  3727  04E0  1283               	bcf	status, 5	;RP0=0, select bank0
  3728  04E1  1303               	bcf	status, 6	;RP1=0, select bank0
  3729  04E2  083A               	movf	(_User3Sugar),w
  3730  04E3  00DD               	movwf	(??_main+0)+0
  3731  04E4  085D               	movf	(??_main+0)+0,w
  3732  04E5  00D8               	movwf	(?_DisplaySugar)
  3733  04E6  309A               	movlw	(09Ah)
  3734  04E7  160A  118A  27AC   	fcall	_DisplaySugar
              120A  118A         
  3735                           	line	368
  3736                           ;Main.c: 368: lcdcmd(0xD4);
  3737  04EC  30D4               	movlw	(0D4h)
  3738  04ED  160A  118A  252C   	fcall	_lcdcmd
              120A  118A         
  3739                           	line	369
  3740                           	
  3741  04F2                     l4960:	
  3742                           ;Main.c: 369: lcdstring("KEROSENE:   Lts     ");
  3743  04F2  303A               	movlw	low(STR_53|8000h)
  3744  04F3  1283               	bcf	status, 5	;RP0=0, select bank0
  3745  04F4  1303               	bcf	status, 6	;RP1=0, select bank0
  3746  04F5  00CF               	movwf	(?_lcdstring)
  3747  04F6  3099               	movlw	high(STR_53|8000h)
  3748  04F7  00D0               	movwf	((?_lcdstring))+1
  3749  04F8  160A  118A  24D2   	fcall	_lcdstring
              120A  118A         
  3750                           	line	370
  3751                           	
  3752  04FD                     l4962:	
  3753                           ;Main.c: 370: DisplayKerosene(0XDD,User3Kerosene);
  3754  04FD  1283               	bcf	status, 5	;RP0=0, select bank0
  3755  04FE  1303               	bcf	status, 6	;RP1=0, select bank0
  3756  04FF  0838               	movf	(_User3Kerosene),w
  3757  0500  00DD               	movwf	(??_main+0)+0
  3758  0501  085D               	movf	(??_main+0)+0,w
  3759  0502  00D8               	movwf	(?_DisplayKerosene)
  3760  0503  30DD               	movlw	(0DDh)
  3761  0504  120A  158A  206C   	fcall	_DisplayKerosene
              120A  118A         
  3762                           	line	371
  3763                           	
  3764  0509                     l4964:	
  3765                           ;Main.c: 371: _delay((unsigned long)((8000)*(20000000/4000.0)));
  3766                           	opt asmopt_off
  3767  0509  30CB               movlw  203
  3768  050A  1283               	bcf	status, 5	;RP0=0, select bank0
  3769  050B  1303               	bcf	status, 6	;RP1=0, select bank0
  3770  050C  00DF               movwf	((??_main+0)+0+2),f
  3771  050D  3023               movlw	35
  3772  050E  00DE               movwf	((??_main+0)+0+1),f
  3773  050F  3009               	movlw	9
  3774  0510  00DD               movwf	((??_main+0)+0),f
  3775  0511                     u3937:
  3776  0511  0BDD               	decfsz	((??_main+0)+0),f
  3777  0512  2D11               	goto	u3937
  3778  0513  0BDE               	decfsz	((??_main+0)+0+1),f
  3779  0514  2D11               	goto	u3937
  3780  0515  0BDF               	decfsz	((??_main+0)+0+2),f
  3781  0516  2D11               	goto	u3937
  3782  0517  0064               	clrwdt
  3783                           opt asmopt_on
  3784                           
  3785                           	line	372
  3786                           	
  3787  0518                     l4966:	
  3788                           ;Main.c: 372: RiseStock=RiseStock-User3Rise;
  3789  0518  1283               	bcf	status, 5	;RP0=0, select bank0
  3790  0519  1303               	bcf	status, 6	;RP1=0, select bank0
  3791  051A  0839               	movf	(_User3Rise),w
  3792  051B  00DD               	movwf	(??_main+0)+0
  3793  051C  01DE               	clrf	(??_main+0)+0+1
  3794  051D  09DD               	comf	(??_main+0)+0,f
  3795  051E  09DE               	comf	(??_main+0)+1,f
  3796  051F  0ADD               	incf	(??_main+0)+0,f
  3797  0520  1903               	skipnz
  3798  0521  0ADE               	incf	(??_main+0)+1,f
  3799  0522  0822               	movf	(_RiseStock),w
  3800  0523  075D               	addwf	0+(??_main+0)+0,w
  3801  0524  00A2               	movwf	(_RiseStock)
  3802  0525  0823               	movf	(_RiseStock+1),w
  3803  0526  1803               	skipnc
  3804  0527  0A23               	incf	(_RiseStock+1),w
  3805  0528  075E               	addwf	1+(??_main+0)+0,w
  3806  0529  00A3               	movwf	1+(_RiseStock)
  3807                           	line	373
  3808                           	
  3809  052A                     l4968:	
  3810                           ;Main.c: 373: SugarStock=SugarStock-User3Sugar;
  3811  052A  083A               	movf	(_User3Sugar),w
  3812  052B  00DD               	movwf	(??_main+0)+0
  3813  052C  01DE               	clrf	(??_main+0)+0+1
  3814  052D  09DD               	comf	(??_main+0)+0,f
  3815  052E  09DE               	comf	(??_main+0)+1,f
  3816  052F  0ADD               	incf	(??_main+0)+0,f
  3817  0530  1903               	skipnz
  3818  0531  0ADE               	incf	(??_main+0)+1,f
  3819  0532  0824               	movf	(_SugarStock),w
  3820  0533  075D               	addwf	0+(??_main+0)+0,w
  3821  0534  00A4               	movwf	(_SugarStock)
  3822  0535  0825               	movf	(_SugarStock+1),w
  3823  0536  1803               	skipnc
  3824  0537  0A25               	incf	(_SugarStock+1),w
  3825  0538  075E               	addwf	1+(??_main+0)+0,w
  3826  0539  00A5               	movwf	1+(_SugarStock)
  3827                           	line	374
  3828                           	
  3829  053A                     l4970:	
  3830                           ;Main.c: 374: KeroseneStock=KeroseneStock-User3Kerosene;
  3831  053A  0838               	movf	(_User3Kerosene),w
  3832  053B  00DD               	movwf	(??_main+0)+0
  3833  053C  01DE               	clrf	(??_main+0)+0+1
  3834  053D  09DD               	comf	(??_main+0)+0,f
  3835  053E  09DE               	comf	(??_main+0)+1,f
  3836  053F  0ADD               	incf	(??_main+0)+0,f
  3837  0540  1903               	skipnz
  3838  0541  0ADE               	incf	(??_main+0)+1,f
  3839  0542  0820               	movf	(_KeroseneStock),w
  3840  0543  075D               	addwf	0+(??_main+0)+0,w
  3841  0544  00A0               	movwf	(_KeroseneStock)
  3842  0545  0821               	movf	(_KeroseneStock+1),w
  3843  0546  1803               	skipnc
  3844  0547  0A21               	incf	(_KeroseneStock+1),w
  3845  0548  075E               	addwf	1+(??_main+0)+0,w
  3846  0549  00A1               	movwf	1+(_KeroseneStock)
  3847                           	line	375
  3848                           	
  3849  054A                     l4972:	
  3850                           ;Main.c: 375: eeprom_write(24,RiseStock/100);
  3851  054A  3064               	movlw	low(064h)
  3852  054B  00CE               	movwf	(?___lwdiv)
  3853  054C  3000               	movlw	high(064h)
  3854  054D  00CF               	movwf	((?___lwdiv))+1
  3855  054E  0823               	movf	(_RiseStock+1),w
  3856  054F  01D1               	clrf	1+(?___lwdiv)+02h
  3857  0550  07D1               	addwf	1+(?___lwdiv)+02h
  3858  0551  0822               	movf	(_RiseStock),w
  3859  0552  01D0               	clrf	0+(?___lwdiv)+02h
  3860  0553  07D0               	addwf	0+(?___lwdiv)+02h
  3861                           
  3862  0554  160A  118A  275A   	fcall	___lwdiv
              120A  118A         
  3863  0559  1283               	bcf	status, 5	;RP0=0, select bank0
  3864  055A  1303               	bcf	status, 6	;RP1=0, select bank0
  3865  055B  084E               	movf	(0+(?___lwdiv)),w
  3866  055C  00DD               	movwf	(??_main+0)+0
  3867  055D  085D               	movf	(??_main+0)+0,w
  3868  055E  00D8               	movwf	(?_eeprom_write)
  3869  055F  3018               	movlw	(018h)
  3870  0560  160A  118A  258C   	fcall	_eeprom_write
              120A  118A         
  3871                           	line	376
  3872                           	
  3873  0565                     l4974:	
  3874                           ;Main.c: 376: eeprom_write(25,RiseStock%100);
  3875  0565  3064               	movlw	low(064h)
  3876  0566  1283               	bcf	status, 5	;RP0=0, select bank0
  3877  0567  1303               	bcf	status, 6	;RP1=0, select bank0
  3878  0568  00C8               	movwf	(?___lwmod)
  3879  0569  3000               	movlw	high(064h)
  3880  056A  00C9               	movwf	((?___lwmod))+1
  3881  056B  0823               	movf	(_RiseStock+1),w
  3882  056C  01CB               	clrf	1+(?___lwmod)+02h
  3883  056D  07CB               	addwf	1+(?___lwmod)+02h
  3884  056E  0822               	movf	(_RiseStock),w
  3885  056F  01CA               	clrf	0+(?___lwmod)+02h
  3886  0570  07CA               	addwf	0+(?___lwmod)+02h
  3887                           
  3888  0571  160A  118A  26CD   	fcall	___lwmod
              120A  118A         
  3889  0576  1283               	bcf	status, 5	;RP0=0, select bank0
  3890  0577  1303               	bcf	status, 6	;RP1=0, select bank0
  3891  0578  0848               	movf	(0+(?___lwmod)),w
  3892  0579  00DD               	movwf	(??_main+0)+0
  3893  057A  085D               	movf	(??_main+0)+0,w
  3894  057B  00D8               	movwf	(?_eeprom_write)
  3895  057C  3019               	movlw	(019h)
  3896  057D  160A  118A  258C   	fcall	_eeprom_write
              120A  118A         
  3897                           	line	377
  3898                           	
  3899  0582                     l4976:	
  3900                           ;Main.c: 377: eeprom_write(26,SugarStock);
  3901  0582  1283               	bcf	status, 5	;RP0=0, select bank0
  3902  0583  1303               	bcf	status, 6	;RP1=0, select bank0
  3903  0584  0824               	movf	(_SugarStock),w
  3904  0585  00DD               	movwf	(??_main+0)+0
  3905  0586  085D               	movf	(??_main+0)+0,w
  3906  0587  00D8               	movwf	(?_eeprom_write)
  3907  0588  301A               	movlw	(01Ah)
  3908  0589  160A  118A  258C   	fcall	_eeprom_write
              120A  118A         
  3909                           	line	378
  3910                           	
  3911  058E                     l4978:	
  3912                           ;Main.c: 378: eeprom_write(27,KeroseneStock);
  3913  058E  1283               	bcf	status, 5	;RP0=0, select bank0
  3914  058F  1303               	bcf	status, 6	;RP1=0, select bank0
  3915  0590  0820               	movf	(_KeroseneStock),w
  3916  0591  00DD               	movwf	(??_main+0)+0
  3917  0592  085D               	movf	(??_main+0)+0,w
  3918  0593  00D8               	movwf	(?_eeprom_write)
  3919  0594  301B               	movlw	(01Bh)
  3920  0595  160A  118A  258C   	fcall	_eeprom_write
              120A  118A         
  3921                           	line	379
  3922                           	
  3923  059A                     l4980:	
  3924                           ;Main.c: 379: User3amt = User3amt-20;
  3925  059A  1283               	bcf	status, 5	;RP0=0, select bank0
  3926  059B  1303               	bcf	status, 6	;RP1=0, select bank0
  3927  059C  082C               	movf	(_User3amt),w
  3928  059D  3EEC               	addlw	low(-20)
  3929  059E  00AC               	movwf	(_User3amt)
  3930  059F  082D               	movf	(_User3amt+1),w
  3931  05A0  1803               	skipnc
  3932  05A1  3E01               	addlw	1
  3933  05A2  3EFF               	addlw	high(-20)
  3934  05A3  00AD               	movwf	1+(_User3amt)
  3935                           	line	383
  3936                           	
  3937  05A4                     l4982:	
  3938                           ;Main.c: 383: eeprom_write(16,User3amt/100);
  3939  05A4  3064               	movlw	low(064h)
  3940  05A5  00CF               	movwf	(?___awdiv)
  3941  05A6  3000               	movlw	high(064h)
  3942  05A7  00D0               	movwf	((?___awdiv))+1
  3943  05A8  082D               	movf	(_User3amt+1),w
  3944  05A9  01D2               	clrf	1+(?___awdiv)+02h
  3945  05AA  07D2               	addwf	1+(?___awdiv)+02h
  3946  05AB  082C               	movf	(_User3amt),w
  3947  05AC  01D1               	clrf	0+(?___awdiv)+02h
  3948  05AD  07D1               	addwf	0+(?___awdiv)+02h
  3949                           
  3950  05AE  120A  158A  2320   	fcall	___awdiv
              120A  118A         
  3951  05B3  1283               	bcf	status, 5	;RP0=0, select bank0
  3952  05B4  1303               	bcf	status, 6	;RP1=0, select bank0
  3953  05B5  084F               	movf	(0+(?___awdiv)),w
  3954  05B6  00DD               	movwf	(??_main+0)+0
  3955  05B7  085D               	movf	(??_main+0)+0,w
  3956  05B8  00D8               	movwf	(?_eeprom_write)
  3957  05B9  3010               	movlw	(010h)
  3958  05BA  160A  118A  258C   	fcall	_eeprom_write
              120A  118A         
  3959                           	line	384
  3960                           	
  3961  05BF                     l4984:	
  3962                           ;Main.c: 384: eeprom_write(17,User3amt%100);
  3963  05BF  3064               	movlw	low(064h)
  3964  05C0  1283               	bcf	status, 5	;RP0=0, select bank0
  3965  05C1  1303               	bcf	status, 6	;RP1=0, select bank0
  3966  05C2  00C8               	movwf	(?___awmod)
  3967  05C3  3000               	movlw	high(064h)
  3968  05C4  00C9               	movwf	((?___awmod))+1
  3969  05C5  082D               	movf	(_User3amt+1),w
  3970  05C6  01CB               	clrf	1+(?___awmod)+02h
  3971  05C7  07CB               	addwf	1+(?___awmod)+02h
  3972  05C8  082C               	movf	(_User3amt),w
  3973  05C9  01CA               	clrf	0+(?___awmod)+02h
  3974  05CA  07CA               	addwf	0+(?___awmod)+02h
  3975                           
  3976  05CB  120A  158A  21CF   	fcall	___awmod
              120A  118A         
  3977  05D0  1283               	bcf	status, 5	;RP0=0, select bank0
  3978  05D1  1303               	bcf	status, 6	;RP1=0, select bank0
  3979  05D2  0848               	movf	(0+(?___awmod)),w
  3980  05D3  00DD               	movwf	(??_main+0)+0
  3981  05D4  085D               	movf	(??_main+0)+0,w
  3982  05D5  00D8               	movwf	(?_eeprom_write)
  3983  05D6  3011               	movlw	(011h)
  3984  05D7  160A  118A  258C   	fcall	_eeprom_write
              120A  118A         
  3985                           	line	385
  3986                           	
  3987  05DC                     l4986:	
  3988                           ;Main.c: 385: eeprom_write(18,User3Rise);
  3989  05DC  1283               	bcf	status, 5	;RP0=0, select bank0
  3990  05DD  1303               	bcf	status, 6	;RP1=0, select bank0
  3991  05DE  0839               	movf	(_User3Rise),w
  3992  05DF  00DD               	movwf	(??_main+0)+0
  3993  05E0  085D               	movf	(??_main+0)+0,w
  3994  05E1  00D8               	movwf	(?_eeprom_write)
  3995  05E2  3012               	movlw	(012h)
  3996  05E3  160A  118A  258C   	fcall	_eeprom_write
              120A  118A         
  3997                           	line	386
  3998                           	
  3999  05E8                     l4988:	
  4000                           ;Main.c: 386: eeprom_write(19,User3Sugar);
  4001  05E8  1283               	bcf	status, 5	;RP0=0, select bank0
  4002  05E9  1303               	bcf	status, 6	;RP1=0, select bank0
  4003  05EA  083A               	movf	(_User3Sugar),w
  4004  05EB  00DD               	movwf	(??_main+0)+0
  4005  05EC  085D               	movf	(??_main+0)+0,w
  4006  05ED  00D8               	movwf	(?_eeprom_write)
  4007  05EE  3013               	movlw	(013h)
  4008  05EF  160A  118A  258C   	fcall	_eeprom_write
              120A  118A         
  4009                           	line	387
  4010                           	
  4011  05F4                     l4990:	
  4012                           ;Main.c: 387: eeprom_write(20,User3Kerosene);
  4013  05F4  1283               	bcf	status, 5	;RP0=0, select bank0
  4014  05F5  1303               	bcf	status, 6	;RP1=0, select bank0
  4015  05F6  0838               	movf	(_User3Kerosene),w
  4016  05F7  00DD               	movwf	(??_main+0)+0
  4017  05F8  085D               	movf	(??_main+0)+0,w
  4018  05F9  00D8               	movwf	(?_eeprom_write)
  4019  05FA  3014               	movlw	(014h)
  4020  05FB  160A  118A  258C   	fcall	_eeprom_write
              120A  118A         
  4021                           	line	389
  4022                           	
  4023  0600                     l4992:	
  4024                           ;Main.c: 389: lcdcmd(0x01);
  4025  0600  3001               	movlw	(01h)
  4026  0601  160A  118A  252C   	fcall	_lcdcmd
              120A  118A         
  4027                           	line	390
  4028                           	
  4029  0606                     l4994:	
  4030                           ;Main.c: 390: lcdcmd(0x80);
  4031  0606  3080               	movlw	(080h)
  4032  0607  160A  118A  252C   	fcall	_lcdcmd
              120A  118A         
  4033                           	line	391
  4034                           	
  4035  060C                     l4996:	
  4036                           ;Main.c: 391: lcdstring(" PLEASE KEEP YOUR");
  4037  060C  301F               	movlw	low(STR_54|8000h)
  4038  060D  1283               	bcf	status, 5	;RP0=0, select bank0
  4039  060E  1303               	bcf	status, 6	;RP1=0, select bank0
  4040  060F  00CF               	movwf	(?_lcdstring)
  4041  0610  309A               	movlw	high(STR_54|8000h)
  4042  0611  00D0               	movwf	((?_lcdstring))+1
  4043  0612  160A  118A  24D2   	fcall	_lcdstring
              120A  118A         
  4044                           	line	392
  4045                           	
  4046  0617                     l4998:	
  4047                           ;Main.c: 392: lcdcmd(0xC0);
  4048  0617  30C0               	movlw	(0C0h)
  4049  0618  160A  118A  252C   	fcall	_lcdcmd
              120A  118A         
  4050                           	line	393
  4051                           	
  4052  061D                     l5000:	
  4053                           ;Main.c: 393: lcdstring(" CAN ON KEROSENE ");
  4054  061D  30FB               	movlw	low(STR_55|8000h)
  4055  061E  1283               	bcf	status, 5	;RP0=0, select bank0
  4056  061F  1303               	bcf	status, 6	;RP1=0, select bank0
  4057  0620  00CF               	movwf	(?_lcdstring)
  4058  0621  3099               	movlw	high(STR_55|8000h)
  4059  0622  00D0               	movwf	((?_lcdstring))+1
  4060  0623  160A  118A  24D2   	fcall	_lcdstring
              120A  118A         
  4061                           	line	394
  4062                           	
  4063  0628                     l5002:	
  4064                           ;Main.c: 394: lcdcmd(0x94);
  4065  0628  3094               	movlw	(094h)
  4066  0629  160A  118A  252C   	fcall	_lcdcmd
              120A  118A         
  4067                           	line	395
  4068                           	
  4069  062E                     l5004:	
  4070                           ;Main.c: 395: lcdstring("      VOLUE      ");
  4071  062E  30C5               	movlw	low(STR_56|8000h)
  4072  062F  1283               	bcf	status, 5	;RP0=0, select bank0
  4073  0630  1303               	bcf	status, 6	;RP1=0, select bank0
  4074  0631  00CF               	movwf	(?_lcdstring)
  4075  0632  3099               	movlw	high(STR_56|8000h)
  4076  0633  00D0               	movwf	((?_lcdstring))+1
  4077  0634  160A  118A  24D2   	fcall	_lcdstring
              120A  118A         
  4078                           	line	396
  4079                           	
  4080  0639                     l5006:	
  4081                           ;Main.c: 396: _delay((unsigned long)((200)*(20000000/4000.0)));
  4082                           	opt asmopt_off
  4083  0639  3006               movlw  6
  4084  063A  1283               	bcf	status, 5	;RP0=0, select bank0
  4085  063B  1303               	bcf	status, 6	;RP1=0, select bank0
  4086  063C  00DF               movwf	((??_main+0)+0+2),f
  4087  063D  300E               movlw	14
  4088  063E  00DE               movwf	((??_main+0)+0+1),f
  4089  063F  30B0               	movlw	176
  4090  0640  00DD               movwf	((??_main+0)+0),f
  4091  0641                     u3947:
  4092  0641  0BDD               	decfsz	((??_main+0)+0),f
  4093  0642  2E41               	goto	u3947
  4094  0643  0BDE               	decfsz	((??_main+0)+0+1),f
  4095  0644  2E41               	goto	u3947
  4096  0645  0BDF               	decfsz	((??_main+0)+0+2),f
  4097  0646  2E41               	goto	u3947
  4098                           opt asmopt_on
  4099                           
  4100                           	line	397
  4101                           	
  4102  0647                     l5008:	
  4103                           ;Main.c: 397: RC4 = 0;
  4104  0647  1283               	bcf	status, 5	;RP0=0, select bank0
  4105  0648  1303               	bcf	status, 6	;RP1=0, select bank0
  4106  0649  1207               	bcf	(60/8),(60)&7
  4107                           	line	398
  4108                           	
  4109  064A                     l5010:	
  4110                           ;Main.c: 398: _delay((unsigned long)((5000)*(20000000/4000.0)));
  4111                           	opt asmopt_off
  4112  064A  307F               movlw  127
  4113  064B  00DF               movwf	((??_main+0)+0+2),f
  4114  064C  3056               movlw	86
  4115  064D  00DE               movwf	((??_main+0)+0+1),f
  4116  064E  3084               	movlw	132
  4117  064F  00DD               movwf	((??_main+0)+0),f
  4118  0650                     u3957:
  4119  0650  0BDD               	decfsz	((??_main+0)+0),f
  4120  0651  2E50               	goto	u3957
  4121  0652  0BDE               	decfsz	((??_main+0)+0+1),f
  4122  0653  2E50               	goto	u3957
  4123  0654  0BDF               	decfsz	((??_main+0)+0+2),f
  4124  0655  2E50               	goto	u3957
  4125  0656  2E57               	nop2
  4126                           opt asmopt_on
  4127                           
  4128                           	line	399
  4129                           	
  4130  0657                     l5012:	
  4131                           ;Main.c: 399: RC4 = 1;
  4132  0657  1283               	bcf	status, 5	;RP0=0, select bank0
  4133  0658  1303               	bcf	status, 6	;RP1=0, select bank0
  4134  0659  1607               	bsf	(60/8),(60)&7
  4135                           	line	400
  4136                           	
  4137  065A                     l5014:	
  4138                           ;Main.c: 400: User=0;
  4139  065A  3000               	movlw	low(0)
  4140  065B  00A6               	movwf	(_User)
  4141  065C  3000               	movlw	high(0)
  4142  065D  00A7               	movwf	((_User))+1
  4143                           	line	401
  4144                           ;Main.c: 401: break;
  4145  065E  2E71               	goto	l5020
  4146                           	line	403
  4147                           	
  4148  065F                     l5016:	
  4149                           ;Main.c: 402: }
  4150                           ;Main.c: 403: }
  4151  065F  2E71               	goto	l5020
  4152                           	line	262
  4153                           	
  4154  0660                     l1165:	
  4155                           	
  4156  0660                     l5018:	
  4157                           	; Switch on 2 bytes has been partitioned into a top level switch of size 1, and 1 sub-s
                                 witches
  4158                           ; Switch size 1, requested type "space"
  4159                           ; Number of cases is 1, Range of values is 0 to 0
  4160                           ; switch strategies available:
  4161                           ; Name         Bytes Cycles
  4162                           ; simple_byte     4     3 (average)
  4163                           ; direct_byte    22    19 (fixed)
  4164                           ;	Chosen strategy is simple_byte
  4165                           
  4166  0660  1283               	bcf	status, 5	;RP0=0, select bank0
  4167  0661  0827               	movf (_User+1),w
  4168  0662  3A00               	xorlw	0^0	; case 0
  4169  0663  1903               	skipnz
  4170  0664  2E66               	goto	l5068
  4171  0665  2E71               	goto	l5020
  4172                           	
  4173  0666                     l5068:	
  4174                           ; Switch size 1, requested type "space"
  4175                           ; Number of cases is 3, Range of values is 1 to 3
  4176                           ; switch strategies available:
  4177                           ; Name         Bytes Cycles
  4178                           ; simple_byte    10     6 (average)
  4179                           ; direct_byte    31    22 (fixed)
  4180                           ;	Chosen strategy is simple_byte
  4181                           
  4182  0666  0826               	movf (_User),w
  4183  0667  3A01               	xorlw	1^0	; case 1
  4184  0668  1903               	skipnz
  4185  0669  28F8               	goto	l4810
  4186  066A  3A03               	xorlw	2^1	; case 2
  4187  066B  1903               	skipnz
  4188  066C  2AC3               	goto	l4878
  4189  066D  3A01               	xorlw	3^2	; case 3
  4190  066E  1903               	skipnz
  4191  066F  2C8E               	goto	l4946
  4192  0670  2E71               	goto	l5020
  4193                           
  4194                           	line	403
  4195                           	
  4196  0671                     l1167:	
  4197                           	line	404
  4198                           	
  4199  0671                     l5020:	
  4200                           ;Main.c: 404: ReadStock();
  4201  0671  160A  118A  2713   	fcall	_ReadStock
              120A  118A         
  4202                           	line	405
  4203                           	
  4204  0676                     l5022:	
  4205                           ;Main.c: 405: LoadStockToArray();
  4206  0676  120A  158A  2612   	fcall	_LoadStockToArray
              120A  118A         
  4207                           	line	406
  4208                           	
  4209  067B                     l5024:	
  4210                           ;Main.c: 406: if(RC1)
  4211  067B  1283               	bcf	status, 5	;RP0=0, select bank0
  4212  067C  1303               	bcf	status, 6	;RP1=0, select bank0
  4213  067D  1C87               	btfss	(57/8),(57)&7
  4214  067E  2E80               	goto	u3811
  4215  067F  2E81               	goto	u3810
  4216  0680                     u3811:
  4217  0680  2E87               	goto	l5028
  4218  0681                     u3810:
  4219                           	line	407
  4220                           	
  4221  0681                     l5026:	
  4222                           ;Main.c: 407: DisplayStock();
  4223  0681  120A  158A  223B   	fcall	_DisplayStock
              120A  118A         
  4224  0686  2E87               	goto	l5028
  4225                           	
  4226  0687                     l1170:	
  4227                           	line	408
  4228                           	
  4229  0687                     l5028:	
  4230                           ;Main.c: 408: _delay((unsigned long)((500)*(20000000/4000.0)));
  4231                           	opt asmopt_off
  4232  0687  300D               movlw  13
  4233  0688  1283               	bcf	status, 5	;RP0=0, select bank0
  4234  0689  1303               	bcf	status, 6	;RP1=0, select bank0
  4235  068A  00DF               movwf	((??_main+0)+0+2),f
  4236  068B  30A3               movlw	163
  4237  068C  00DE               movwf	((??_main+0)+0+1),f
  4238  068D  30BD               	movlw	189
  4239  068E  00DD               movwf	((??_main+0)+0),f
  4240  068F                     u3967:
  4241  068F  0BDD               	decfsz	((??_main+0)+0),f
  4242  0690  2E8F               	goto	u3967
  4243  0691  0BDE               	decfsz	((??_main+0)+0+1),f
  4244  0692  2E8F               	goto	u3967
  4245  0693  0BDF               	decfsz	((??_main+0)+0+2),f
  4246  0694  2E8F               	goto	u3967
  4247  0695  0064               	clrwdt
  4248                           opt asmopt_on
  4249                           
  4250                           	line	410
  4251                           	
  4252  0696                     l5030:	
  4253                           ;Main.c: 410: if((memcmp("STOCK",&sms,5)==0))
  4254  0696  30A6               	movlw	low(STR_57|8000h)
  4255  0697  1283               	bcf	status, 5	;RP0=0, select bank0
  4256  0698  1303               	bcf	status, 6	;RP1=0, select bank0
  4257  0699  00C8               	movwf	(?_memcmp)
  4258  069A  309A               	movlw	high(STR_57|8000h)
  4259  069B  00C9               	movwf	((?_memcmp))+1
  4260  069C  30AF               	movlw	(_sms)&0ffh
  4261  069D  00DD               	movwf	(??_main+0)+0
  4262  069E  085D               	movf	(??_main+0)+0,w
  4263  069F  00CA               	movwf	(0+?_memcmp+02h)
  4264  06A0  3005               	movlw	low(05h)
  4265  06A1  00CB               	movwf	0+(?_memcmp)+03h
  4266  06A2  3000               	movlw	high(05h)
  4267  06A3  00CC               	movwf	(0+(?_memcmp)+03h)+1
  4268  06A4  120A  158A  2115   	fcall	_memcmp
              120A  118A         
  4269  06A9  1283               	bcf	status, 5	;RP0=0, select bank0
  4270  06AA  1303               	bcf	status, 6	;RP1=0, select bank0
  4271  06AB  0849               	movf	((1+(?_memcmp))),w
  4272  06AC  0448               	iorwf	((0+(?_memcmp))),w
  4273  06AD  1D03               	skipz
  4274  06AE  2EB0               	goto	u3821
  4275  06AF  2EB1               	goto	u3820
  4276  06B0                     u3821:
  4277  06B0  2EBD               	goto	l5038
  4278  06B1                     u3820:
  4279                           	line	412
  4280                           	
  4281  06B1                     l5032:	
  4282                           ;Main.c: 411: {
  4283                           ;Main.c: 412: if(!sms_indication)
  4284  06B1  18FB               	btfsc	(_sms_indication/8),(_sms_indication)&7
  4285  06B2  2EB4               	goto	u3831
  4286  06B3  2EB5               	goto	u3830
  4287  06B4                     u3831:
  4288  06B4  2EBD               	goto	l5038
  4289  06B5                     u3830:
  4290                           	line	414
  4291                           	
  4292  06B5                     l5034:	
  4293                           ;Main.c: 413: {
  4294                           ;Main.c: 414: SendStock();
  4295  06B5  120A  158A  239B   	fcall	_SendStock
              120A  118A         
  4296                           	line	415
  4297                           	
  4298  06BA                     l5036:	
  4299                           ;Main.c: 415: sms_indication=1;
  4300  06BA  14FB               	bsf	(_sms_indication/8),(_sms_indication)&7
  4301  06BB  2EBD               	goto	l5038
  4302                           	line	416
  4303                           	
  4304  06BC                     l1172:	
  4305  06BC  2EBD               	goto	l5038
  4306                           	line	417
  4307                           	
  4308  06BD                     l1171:	
  4309                           	line	418
  4310                           	
  4311  06BD                     l5038:	
  4312                           ;Main.c: 416: }
  4313                           ;Main.c: 417: }
  4314                           ;Main.c: 418: if(RC3==1)
  4315  06BD  1283               	bcf	status, 5	;RP0=0, select bank0
  4316  06BE  1303               	bcf	status, 6	;RP1=0, select bank0
  4317  06BF  1D87               	btfss	(59/8),(59)&7
  4318  06C0  2EC2               	goto	u3841
  4319  06C1  2EC3               	goto	u3840
  4320  06C2                     u3841:
  4321  06C2  2EFE               	goto	l1174
  4322  06C3                     u3840:
  4323                           	line	420
  4324                           	
  4325  06C3                     l5040:	
  4326                           ;Main.c: 419: {
  4327                           ;Main.c: 420: eeprom_write(24,10);
  4328  06C3  300A               	movlw	(0Ah)
  4329  06C4  00DD               	movwf	(??_main+0)+0
  4330  06C5  085D               	movf	(??_main+0)+0,w
  4331  06C6  00D8               	movwf	(?_eeprom_write)
  4332  06C7  3018               	movlw	(018h)
  4333  06C8  160A  118A  258C   	fcall	_eeprom_write
              120A  118A         
  4334                           	line	421
  4335                           ;Main.c: 421: eeprom_write(25,0);
  4336  06CD  1003               	clrc
  4337  06CE  3000               	movlw	0
  4338  06CF  1803               	btfsc	status,0
  4339  06D0  3001               	movlw	1
  4340  06D1  1283               	bcf	status, 5	;RP0=0, select bank0
  4341  06D2  1303               	bcf	status, 6	;RP1=0, select bank0
  4342  06D3  00D8               	movwf	(?_eeprom_write)
  4343  06D4  3019               	movlw	(019h)
  4344  06D5  160A  118A  258C   	fcall	_eeprom_write
              120A  118A         
  4345                           	line	422
  4346                           ;Main.c: 422: eeprom_write(26,255);
  4347  06DA  30FF               	movlw	(0FFh)
  4348  06DB  1283               	bcf	status, 5	;RP0=0, select bank0
  4349  06DC  1303               	bcf	status, 6	;RP1=0, select bank0
  4350  06DD  00DD               	movwf	(??_main+0)+0
  4351  06DE  085D               	movf	(??_main+0)+0,w
  4352  06DF  00D8               	movwf	(?_eeprom_write)
  4353  06E0  301A               	movlw	(01Ah)
  4354  06E1  160A  118A  258C   	fcall	_eeprom_write
              120A  118A         
  4355                           	line	423
  4356                           ;Main.c: 423: eeprom_write(27,200);
  4357  06E6  30C8               	movlw	(0C8h)
  4358  06E7  1283               	bcf	status, 5	;RP0=0, select bank0
  4359  06E8  1303               	bcf	status, 6	;RP1=0, select bank0
  4360  06E9  00DD               	movwf	(??_main+0)+0
  4361  06EA  085D               	movf	(??_main+0)+0,w
  4362  06EB  00D8               	movwf	(?_eeprom_write)
  4363  06EC  301B               	movlw	(01Bh)
  4364  06ED  160A  118A  258C   	fcall	_eeprom_write
              120A  118A         
  4365                           	line	424
  4366                           ;Main.c: 424: ReadStock();
  4367  06F2  160A  118A  2713   	fcall	_ReadStock
              120A  118A         
  4368                           	line	426
  4369                           	
  4370  06F7                     l5042:	
  4371                           ;Main.c: 426: DisplayStock();
  4372  06F7  120A  158A  223B   	fcall	_DisplayStock
              120A  118A         
  4373  06FC  2EFE               	goto	l1174
  4374                           	line	427
  4375                           	
  4376  06FD                     l1173:	
  4377                           ;Main.c: 427: }while(RC3);
  4378  06FD  2EFE               	goto	l1174
  4379                           	
  4380  06FE                     l1175:	
  4381                           	
  4382  06FE                     l1174:	
  4383  06FE  1283               	bcf	status, 5	;RP0=0, select bank0
  4384  06FF  1303               	bcf	status, 6	;RP1=0, select bank0
  4385  0700  1987               	btfsc	(59/8),(59)&7
  4386  0701  2F03               	goto	u3851
  4387  0702  2F04               	goto	u3850
  4388  0703                     u3851:
  4389  0703  2EFE               	goto	l1174
  4390  0704                     u3850:
  4391  0704  284C               	goto	l4772
  4392                           	
  4393  0705                     l1176:	
  4394  0705  284C               	goto	l4772
  4395                           	line	430
  4396                           	
  4397  0706                     l1177:	
  4398                           	line	230
  4399  0706  284C               	goto	l4772
  4400                           	
  4401  0707                     l1178:	
  4402                           	line	431
  4403                           	
  4404  0707                     l1179:	
  4405                           	global	start
  4406  0707  120A  118A  2812   	ljmp	start
  4407                           	opt stack 0
  4408                           GLOBAL	__end_of_main
  4409  070A                     	__end_of_main:
  4410 ;; =============== function _main ends ============
  4411                           
  4412                           	signat	_main,88
  4413                           	global	_startup
  4414                           psect	text896,local,class=CODE,delta=2
  4415                           global __ptext896
  4416  0AAA                     __ptext896:
  4417                           
  4418 ;; *************** function _startup *****************
  4419 ;; Defined at:
  4420 ;;		line 161 in file "F:\PiROOT_Tech\student_projects\AutomaticRationCardSystem\Main.c"
  4421 ;; Parameters:    Size  Location     Type
  4422 ;;		None
  4423 ;; Auto vars:     Size  Location     Type
  4424 ;;		None
  4425 ;; Return value:  Size  Location     Type
  4426 ;;		None               void
  4427 ;; Registers used:
  4428 ;;		wreg, fsr0l, fsr0h, status,2, status,0, btemp+1, pclath, cstack
  4429 ;; Tracked objects:
  4430 ;;		On entry : 0/0
  4431 ;;		On exit  : 0/0
  4432 ;;		Unchanged: 0/0
  4433 ;; Data sizes:     COMMON   BANK0   BANK1   BANK3   BANK2
  4434 ;;      Params:         0       0       0       0       0
  4435 ;;      Locals:         0       0       0       0       0
  4436 ;;      Temps:          0       3       0       0       0
  4437 ;;      Totals:         0       3       0       0       0
  4438 ;;Total ram usage:        3 bytes
  4439 ;; Hardware stack levels used:    1
  4440 ;; Hardware stack levels required when called:    6
  4441 ;; This function calls:
  4442 ;;		_lcdcmd
  4443 ;;		_lcdstring
  4444 ;; This function is called by:
  4445 ;;		_main
  4446 ;; This function uses a non-reentrant model
  4447 ;;
  4448                           psect	text896
  4449                           	file	"F:\PiROOT_Tech\student_projects\AutomaticRationCardSystem\Main.c"
  4450                           	line	161
  4451                           	global	__size_of_startup
  4452  0076                     	__size_of_startup	equ	__end_of_startup-_startup
  4453                           	
  4454  0AAA                     _startup:	
  4455                           	opt	stack 1
  4456                           ; Regs used in _startup: [wreg-fsr0h+status,2+status,0+btemp+1+pclath+cstack]
  4457                           	line	162
  4458                           	
  4459  0AAA                     l4728:	
  4460                           ;Main.c: 162: lcdcmd(0x80);
  4461  0AAA  3080               	movlw	(080h)
  4462  0AAB  160A  118A  252C   	fcall	_lcdcmd
              120A  158A         
  4463                           	line	163
  4464                           	
  4465  0AB0                     l4730:	
  4466                           ;Main.c: 163: lcdstring("AUTOMATIC RATION ");
  4467  0AB0  300D               	movlw	low(STR_23|8000h)
  4468  0AB1  1283               	bcf	status, 5	;RP0=0, select bank0
  4469  0AB2  1303               	bcf	status, 6	;RP1=0, select bank0
  4470  0AB3  00CF               	movwf	(?_lcdstring)
  4471  0AB4  309A               	movlw	high(STR_23|8000h)
  4472  0AB5  00D0               	movwf	((?_lcdstring))+1
  4473  0AB6  160A  118A  24D2   	fcall	_lcdstring
              120A  158A         
  4474                           	line	164
  4475                           	
  4476  0ABB                     l4732:	
  4477                           ;Main.c: 164: lcdcmd(0xC0);
  4478  0ABB  30C0               	movlw	(0C0h)
  4479  0ABC  160A  118A  252C   	fcall	_lcdcmd
              120A  158A         
  4480                           	line	165
  4481                           ;Main.c: 165: lcdstring("   CARD SYSTEM   ");
  4482  0AC1  30D7               	movlw	low(STR_24|8000h)
  4483  0AC2  1283               	bcf	status, 5	;RP0=0, select bank0
  4484  0AC3  1303               	bcf	status, 6	;RP1=0, select bank0
  4485  0AC4  00CF               	movwf	(?_lcdstring)
  4486  0AC5  3099               	movlw	high(STR_24|8000h)
  4487  0AC6  00D0               	movwf	((?_lcdstring))+1
  4488  0AC7  160A  118A  24D2   	fcall	_lcdstring
              120A  158A         
  4489                           	line	166
  4490                           	
  4491  0ACC                     l4734:	
  4492                           ;Main.c: 166: _delay((unsigned long)((1000)*(20000000/4000.0)));
  4493                           	opt asmopt_off
  4494  0ACC  301A               movlw  26
  4495  0ACD  1283               	bcf	status, 5	;RP0=0, select bank0
  4496  0ACE  1303               	bcf	status, 6	;RP1=0, select bank0
  4497  0ACF  00D3               movwf	((??_startup+0)+0+2),f
  4498  0AD0  3045               movlw	69
  4499  0AD1  00D2               movwf	((??_startup+0)+0+1),f
  4500  0AD2  307E               	movlw	126
  4501  0AD3  00D1               movwf	((??_startup+0)+0),f
  4502  0AD4                     u3977:
  4503  0AD4  0BD1               	decfsz	((??_startup+0)+0),f
  4504  0AD5  2AD4               	goto	u3977
  4505  0AD6  0BD2               	decfsz	((??_startup+0)+0+1),f
  4506  0AD7  2AD4               	goto	u3977
  4507  0AD8  0BD3               	decfsz	((??_startup+0)+0+2),f
  4508  0AD9  2AD4               	goto	u3977
  4509                           opt asmopt_on
  4510                           
  4511                           	line	167
  4512                           	
  4513  0ADA                     l4736:	
  4514                           ;Main.c: 167: lcdcmd(0x01);
  4515  0ADA  3001               	movlw	(01h)
  4516  0ADB  160A  118A  252C   	fcall	_lcdcmd
              120A  158A         
  4517                           	line	168
  4518                           	
  4519  0AE0                     l4738:	
  4520                           ;Main.c: 168: _delay((unsigned long)((500)*(20000000/4000.0)));
  4521                           	opt asmopt_off
  4522  0AE0  300D               movlw  13
  4523  0AE1  1283               	bcf	status, 5	;RP0=0, select bank0
  4524  0AE2  1303               	bcf	status, 6	;RP1=0, select bank0
  4525  0AE3  00D3               movwf	((??_startup+0)+0+2),f
  4526  0AE4  30A3               movlw	163
  4527  0AE5  00D2               movwf	((??_startup+0)+0+1),f
  4528  0AE6  30BD               	movlw	189
  4529  0AE7  00D1               movwf	((??_startup+0)+0),f
  4530  0AE8                     u3987:
  4531  0AE8  0BD1               	decfsz	((??_startup+0)+0),f
  4532  0AE9  2AE8               	goto	u3987
  4533  0AEA  0BD2               	decfsz	((??_startup+0)+0+1),f
  4534  0AEB  2AE8               	goto	u3987
  4535  0AEC  0BD3               	decfsz	((??_startup+0)+0+2),f
  4536  0AED  2AE8               	goto	u3987
  4537  0AEE  0064               	clrwdt
  4538                           opt asmopt_on
  4539                           
  4540                           	line	169
  4541                           	
  4542  0AEF                     l4740:	
  4543                           ;Main.c: 169: lcdcmd(0x80);
  4544  0AEF  3080               	movlw	(080h)
  4545  0AF0  160A  118A  252C   	fcall	_lcdcmd
              120A  158A         
  4546                           	line	170
  4547                           ;Main.c: 170: lcdstring("PLEASE TAP YOUR  ");
  4548  0AF5  30E9               	movlw	low(STR_25|8000h)
  4549  0AF6  1283               	bcf	status, 5	;RP0=0, select bank0
  4550  0AF7  1303               	bcf	status, 6	;RP1=0, select bank0
  4551  0AF8  00CF               	movwf	(?_lcdstring)
  4552  0AF9  3099               	movlw	high(STR_25|8000h)
  4553  0AFA  00D0               	movwf	((?_lcdstring))+1
  4554  0AFB  160A  118A  24D2   	fcall	_lcdstring
              120A  158A         
  4555                           	line	171
  4556                           	
  4557  0B00                     l4742:	
  4558                           ;Main.c: 171: lcdcmd(0xC0);
  4559  0B00  30C0               	movlw	(0C0h)
  4560  0B01  160A  118A  252C   	fcall	_lcdcmd
              120A  158A         
  4561                           	line	172
  4562                           	
  4563  0B06                     l4744:	
  4564                           ;Main.c: 172: lcdstring("SMART CARD       ");
  4565  0B06  30B3               	movlw	low(STR_26|8000h)
  4566  0B07  1283               	bcf	status, 5	;RP0=0, select bank0
  4567  0B08  1303               	bcf	status, 6	;RP1=0, select bank0
  4568  0B09  00CF               	movwf	(?_lcdstring)
  4569  0B0A  3099               	movlw	high(STR_26|8000h)
  4570  0B0B  00D0               	movwf	((?_lcdstring))+1
  4571  0B0C  160A  118A  24D2   	fcall	_lcdstring
              120A  158A         
  4572                           	line	173
  4573                           	
  4574  0B11                     l4746:	
  4575                           ;Main.c: 173: _delay((unsigned long)((1000)*(20000000/4000.0)));
  4576                           	opt asmopt_off
  4577  0B11  301A               movlw  26
  4578  0B12  1283               	bcf	status, 5	;RP0=0, select bank0
  4579  0B13  1303               	bcf	status, 6	;RP1=0, select bank0
  4580  0B14  00D3               movwf	((??_startup+0)+0+2),f
  4581  0B15  3045               movlw	69
  4582  0B16  00D2               movwf	((??_startup+0)+0+1),f
  4583  0B17  307E               	movlw	126
  4584  0B18  00D1               movwf	((??_startup+0)+0),f
  4585  0B19                     u3997:
  4586  0B19  0BD1               	decfsz	((??_startup+0)+0),f
  4587  0B1A  2B19               	goto	u3997
  4588  0B1B  0BD2               	decfsz	((??_startup+0)+0+1),f
  4589  0B1C  2B19               	goto	u3997
  4590  0B1D  0BD3               	decfsz	((??_startup+0)+0+2),f
  4591  0B1E  2B19               	goto	u3997
  4592                           opt asmopt_on
  4593                           
  4594                           	line	174
  4595                           	
  4596  0B1F                     l1143:	
  4597  0B1F  0008               	return
  4598                           	opt stack 0
  4599                           GLOBAL	__end_of_startup
  4600  0B20                     	__end_of_startup:
  4601 ;; =============== function _startup ends ============
  4602                           
  4603                           	signat	_startup,88
  4604                           	global	_DisplayStock
  4605                           psect	text897,local,class=CODE,delta=2
  4606                           global __ptext897
  4607  0A3B                     __ptext897:
  4608                           
  4609 ;; *************** function _DisplayStock *****************
  4610 ;; Defined at:
  4611 ;;		line 114 in file "F:\PiROOT_Tech\student_projects\AutomaticRationCardSystem\Main.c"
  4612 ;; Parameters:    Size  Location     Type
  4613 ;;		None
  4614 ;; Auto vars:     Size  Location     Type
  4615 ;;		None
  4616 ;; Return value:  Size  Location     Type
  4617 ;;		None               void
  4618 ;; Registers used:
  4619 ;;		wreg, fsr0l, fsr0h, status,2, status,0, btemp+1, pclath, cstack
  4620 ;; Tracked objects:
  4621 ;;		On entry : 0/0
  4622 ;;		On exit  : 0/0
  4623 ;;		Unchanged: 0/0
  4624 ;; Data sizes:     COMMON   BANK0   BANK1   BANK3   BANK2
  4625 ;;      Params:         0       0       0       0       0
  4626 ;;      Locals:         0       0       0       0       0
  4627 ;;      Temps:          0       0       0       0       0
  4628 ;;      Totals:         0       0       0       0       0
  4629 ;;Total ram usage:        0 bytes
  4630 ;; Hardware stack levels used:    1
  4631 ;; Hardware stack levels required when called:    6
  4632 ;; This function calls:
  4633 ;;		_lcdcmd
  4634 ;;		_lcdstring
  4635 ;;		_DisplayAmnt
  4636 ;; This function is called by:
  4637 ;;		_main
  4638 ;; This function uses a non-reentrant model
  4639 ;;
  4640                           psect	text897
  4641                           	file	"F:\PiROOT_Tech\student_projects\AutomaticRationCardSystem\Main.c"
  4642                           	line	114
  4643                           	global	__size_of_DisplayStock
  4644  006F                     	__size_of_DisplayStock	equ	__end_of_DisplayStock-_DisplayStock
  4645                           	
  4646  0A3B                     _DisplayStock:	
  4647                           	opt	stack 1
  4648                           ; Regs used in _DisplayStock: [wreg-fsr0h+status,2+status,0+btemp+1+pclath+cstack]
  4649                           	line	115
  4650                           	
  4651  0A3B                     l4714:	
  4652                           ;Main.c: 115: lcdcmd(0x80);
  4653  0A3B  3080               	movlw	(080h)
  4654  0A3C  160A  118A  252C   	fcall	_lcdcmd
              120A  158A         
  4655                           	line	116
  4656                           	
  4657  0A41                     l4716:	
  4658                           ;Main.c: 116: lcdstring("    STOCK DETAILS   ");
  4659  0A41  304F               	movlw	low(STR_19|8000h)
  4660  0A42  1283               	bcf	status, 5	;RP0=0, select bank0
  4661  0A43  1303               	bcf	status, 6	;RP1=0, select bank0
  4662  0A44  00CF               	movwf	(?_lcdstring)
  4663  0A45  3099               	movlw	high(STR_19|8000h)
  4664  0A46  00D0               	movwf	((?_lcdstring))+1
  4665  0A47  160A  118A  24D2   	fcall	_lcdstring
              120A  158A         
  4666                           	line	117
  4667                           	
  4668  0A4C                     l4718:	
  4669                           ;Main.c: 117: lcdcmd(0xC0);
  4670  0A4C  30C0               	movlw	(0C0h)
  4671  0A4D  160A  118A  252C   	fcall	_lcdcmd
              120A  158A         
  4672                           	line	118
  4673                           ;Main.c: 118: lcdstring("RISE:      Kg       ");
  4674  0A52  3025               	movlw	low(STR_20|8000h)
  4675  0A53  1283               	bcf	status, 5	;RP0=0, select bank0
  4676  0A54  1303               	bcf	status, 6	;RP1=0, select bank0
  4677  0A55  00CF               	movwf	(?_lcdstring)
  4678  0A56  3099               	movlw	high(STR_20|8000h)
  4679  0A57  00D0               	movwf	((?_lcdstring))+1
  4680  0A58  160A  118A  24D2   	fcall	_lcdstring
              120A  158A         
  4681                           	line	119
  4682                           ;Main.c: 119: DisplayAmnt(0XC5,RiseStock);
  4683  0A5D  1283               	bcf	status, 5	;RP0=0, select bank0
  4684  0A5E  1303               	bcf	status, 6	;RP1=0, select bank0
  4685  0A5F  0823               	movf	(_RiseStock+1),w
  4686  0A60  01D9               	clrf	(?_DisplayAmnt+1)
  4687  0A61  07D9               	addwf	(?_DisplayAmnt+1)
  4688  0A62  0822               	movf	(_RiseStock),w
  4689  0A63  01D8               	clrf	(?_DisplayAmnt)
  4690  0A64  07D8               	addwf	(?_DisplayAmnt)
  4691                           
  4692  0A65  30C5               	movlw	(0C5h)
  4693  0A66  120A  118A  270A   	fcall	_DisplayAmnt
              120A  158A         
  4694                           	line	120
  4695                           	
  4696  0A6B                     l4720:	
  4697                           ;Main.c: 120: lcdcmd(0x94);
  4698  0A6B  3094               	movlw	(094h)
  4699  0A6C  160A  118A  252C   	fcall	_lcdcmd
              120A  158A         
  4700                           	line	121
  4701                           	
  4702  0A71                     l4722:	
  4703                           ;Main.c: 121: lcdstring("SUGAR:    Kg         ");
  4704  0A71  3090               	movlw	low(STR_21|8000h)
  4705  0A72  1283               	bcf	status, 5	;RP0=0, select bank0
  4706  0A73  1303               	bcf	status, 6	;RP1=0, select bank0
  4707  0A74  00CF               	movwf	(?_lcdstring)
  4708  0A75  3098               	movlw	high(STR_21|8000h)
  4709  0A76  00D0               	movwf	((?_lcdstring))+1
  4710  0A77  160A  118A  24D2   	fcall	_lcdstring
              120A  158A         
  4711                           	line	122
  4712                           	
  4713  0A7C                     l4724:	
  4714                           ;Main.c: 122: DisplayAmnt(0x9A,SugarStock);
  4715  0A7C  1283               	bcf	status, 5	;RP0=0, select bank0
  4716  0A7D  1303               	bcf	status, 6	;RP1=0, select bank0
  4717  0A7E  0825               	movf	(_SugarStock+1),w
  4718  0A7F  01D9               	clrf	(?_DisplayAmnt+1)
  4719  0A80  07D9               	addwf	(?_DisplayAmnt+1)
  4720  0A81  0824               	movf	(_SugarStock),w
  4721  0A82  01D8               	clrf	(?_DisplayAmnt)
  4722  0A83  07D8               	addwf	(?_DisplayAmnt)
  4723                           
  4724  0A84  309A               	movlw	(09Ah)
  4725  0A85  120A  118A  270A   	fcall	_DisplayAmnt
              120A  158A         
  4726                           	line	123
  4727                           	
  4728  0A8A                     l4726:	
  4729                           ;Main.c: 123: lcdcmd(0xD4);
  4730  0A8A  30D4               	movlw	(0D4h)
  4731  0A8B  160A  118A  252C   	fcall	_lcdcmd
              120A  158A         
  4732                           	line	124
  4733                           ;Main.c: 124: lcdstring("KEROSENE:     Lts    ");
  4734  0A90  30A6               	movlw	low(STR_22|8000h)
  4735  0A91  1283               	bcf	status, 5	;RP0=0, select bank0
  4736  0A92  1303               	bcf	status, 6	;RP1=0, select bank0
  4737  0A93  00CF               	movwf	(?_lcdstring)
  4738  0A94  3098               	movlw	high(STR_22|8000h)
  4739  0A95  00D0               	movwf	((?_lcdstring))+1
  4740  0A96  160A  118A  24D2   	fcall	_lcdstring
              120A  158A         
  4741                           	line	125
  4742                           ;Main.c: 125: DisplayAmnt(0XDD,KeroseneStock);
  4743  0A9B  1283               	bcf	status, 5	;RP0=0, select bank0
  4744  0A9C  1303               	bcf	status, 6	;RP1=0, select bank0
  4745  0A9D  0821               	movf	(_KeroseneStock+1),w
  4746  0A9E  01D9               	clrf	(?_DisplayAmnt+1)
  4747  0A9F  07D9               	addwf	(?_DisplayAmnt+1)
  4748  0AA0  0820               	movf	(_KeroseneStock),w
  4749  0AA1  01D8               	clrf	(?_DisplayAmnt)
  4750  0AA2  07D8               	addwf	(?_DisplayAmnt)
  4751                           
  4752  0AA3  30DD               	movlw	(0DDh)
  4753  0AA4  120A  118A  270A   	fcall	_DisplayAmnt
              120A  158A         
  4754                           	line	126
  4755                           	
  4756  0AA9                     l1125:	
  4757  0AA9  0008               	return
  4758                           	opt stack 0
  4759                           GLOBAL	__end_of_DisplayStock
  4760  0AAA                     	__end_of_DisplayStock:
  4761 ;; =============== function _DisplayStock ends ============
  4762                           
  4763                           	signat	_DisplayStock,88
  4764                           	global	_gsm_init
  4765                           psect	text898,local,class=CODE,delta=2
  4766                           global __ptext898
  4767  0D29                     __ptext898:
  4768                           
  4769 ;; *************** function _gsm_init *****************
  4770 ;; Defined at:
  4771 ;;		line 29 in file "F:\PiROOT_Tech\student_projects\AutomaticRationCardSystem\UART.C"
  4772 ;; Parameters:    Size  Location     Type
  4773 ;;		None
  4774 ;; Auto vars:     Size  Location     Type
  4775 ;;  d               1    9[BANK0 ] unsigned char 
  4776 ;; Return value:  Size  Location     Type
  4777 ;;		None               void
  4778 ;; Registers used:
  4779 ;;		wreg, fsr0l, fsr0h, status,2, status,0, btemp+1, pclath, cstack
  4780 ;; Tracked objects:
  4781 ;;		On entry : 0/0
  4782 ;;		On exit  : 0/0
  4783 ;;		Unchanged: 0/0
  4784 ;; Data sizes:     COMMON   BANK0   BANK1   BANK3   BANK2
  4785 ;;      Params:         0       0       0       0       0
  4786 ;;      Locals:         0       1       0       0       0
  4787 ;;      Temps:          0       0       0       0       0
  4788 ;;      Totals:         0       1       0       0       0
  4789 ;;Total ram usage:        1 bytes
  4790 ;; Hardware stack levels used:    1
  4791 ;; Hardware stack levels required when called:    6
  4792 ;; This function calls:
  4793 ;;		_lcdcmd
  4794 ;;		_lcdstring
  4795 ;;		_DelayS
  4796 ;;		_usartstring
  4797 ;;		_transmit
  4798 ;;		_receive
  4799 ;; This function is called by:
  4800 ;;		_main
  4801 ;; This function uses a non-reentrant model
  4802 ;;
  4803                           psect	text898
  4804                           	file	"F:\PiROOT_Tech\student_projects\AutomaticRationCardSystem\UART.C"
  4805                           	line	29
  4806                           	global	__size_of_gsm_init
  4807  00E9                     	__size_of_gsm_init	equ	__end_of_gsm_init-_gsm_init
  4808                           	
  4809  0D29                     _gsm_init:	
  4810                           	opt	stack 1
  4811                           ; Regs used in _gsm_init: [wreg-fsr0h+status,2+status,0+btemp+1+pclath+cstack]
  4812                           	line	31
  4813                           	
  4814  0D29                     l4668:	
  4815                           ;UART.C: 30: unsigned char d;
  4816                           ;UART.C: 31: lcdcmd(0X80);
  4817  0D29  3080               	movlw	(080h)
  4818  0D2A  160A  118A  252C   	fcall	_lcdcmd
              120A  158A         
  4819                           	line	32
  4820                           	
  4821  0D2F                     l4670:	
  4822                           ;UART.C: 32: lcdstring("GSM INITIALIZING");
  4823  0D2F  3042               	movlw	low(STR_1|8000h)
  4824  0D30  1283               	bcf	status, 5	;RP0=0, select bank0
  4825  0D31  1303               	bcf	status, 6	;RP1=0, select bank0
  4826  0D32  00CF               	movwf	(?_lcdstring)
  4827  0D33  309A               	movlw	high(STR_1|8000h)
  4828  0D34  00D0               	movwf	((?_lcdstring))+1
  4829  0D35  160A  118A  24D2   	fcall	_lcdstring
              120A  158A         
  4830                           	line	33
  4831                           	
  4832  0D3A                     l4672:	
  4833                           ;UART.C: 33: lcdcmd(0XC0);
  4834  0D3A  30C0               	movlw	(0C0h)
  4835  0D3B  160A  118A  252C   	fcall	_lcdcmd
              120A  158A         
  4836                           	line	34
  4837                           ;UART.C: 34: lcdstring("PLS WAIT........");
  4838  0D40  3031               	movlw	low(STR_2|8000h)
  4839  0D41  1283               	bcf	status, 5	;RP0=0, select bank0
  4840  0D42  1303               	bcf	status, 6	;RP1=0, select bank0
  4841  0D43  00CF               	movwf	(?_lcdstring)
  4842  0D44  309A               	movlw	high(STR_2|8000h)
  4843  0D45  00D0               	movwf	((?_lcdstring))+1
  4844  0D46  160A  118A  24D2   	fcall	_lcdstring
              120A  158A         
  4845                           	line	35
  4846                           	
  4847  0D4B                     l4674:	
  4848                           ;UART.C: 35: DelayS(5);
  4849  0D4B  3005               	movlw	(05h)
  4850  0D4C  160A  118A  2411   	fcall	_DelayS
              120A  158A         
  4851                           	line	36
  4852                           	
  4853  0D51                     l4676:	
  4854                           ;UART.C: 36: lcdcmd(0x01);
  4855  0D51  3001               	movlw	(01h)
  4856  0D52  160A  118A  252C   	fcall	_lcdcmd
              120A  158A         
  4857                           	line	38
  4858                           ;UART.C: 38: usartstring("AT\r");
  4859  0D57  30B6               	movlw	low(STR_3|8000h)
  4860  0D58  1283               	bcf	status, 5	;RP0=0, select bank0
  4861  0D59  1303               	bcf	status, 6	;RP1=0, select bank0
  4862  0D5A  00C9               	movwf	(?_usartstring)
  4863  0D5B  309A               	movlw	high(STR_3|8000h)
  4864  0D5C  00CA               	movwf	((?_usartstring))+1
  4865  0D5D  160A  118A  24A6   	fcall	_usartstring
              120A  158A         
  4866                           	line	39
  4867                           	
  4868  0D62                     l4678:	
  4869                           ;UART.C: 39: transmit(0x0D);
  4870  0D62  300D               	movlw	(0Dh)
  4871  0D63  160A  118A  234D   	fcall	_transmit
              120A  158A         
  4872                           	line	40
  4873                           ;UART.C: 40: while((d=receive())!='K');
  4874  0D68  2D6A               	goto	l4680
  4875                           	
  4876  0D69                     l1037:	
  4877  0D69  2D6A               	goto	l4680
  4878                           	
  4879  0D6A                     l1036:	
  4880                           	
  4881  0D6A                     l4680:	
  4882  0D6A  160A  118A  23AC   	fcall	_receive
              120A  158A         
  4883  0D6F  1283               	bcf	status, 5	;RP0=0, select bank0
  4884  0D70  1303               	bcf	status, 6	;RP1=0, select bank0
  4885  0D71  00D1               	movwf	(gsm_init@d)
  4886  0D72  3A4B               	xorlw	04Bh
  4887  0D73  1D03               	skipz
  4888  0D74  2D76               	goto	u3721
  4889  0D75  2D77               	goto	u3720
  4890  0D76                     u3721:
  4891  0D76  2D6A               	goto	l4680
  4892  0D77                     u3720:
  4893  0D77  2D78               	goto	l4682
  4894                           	
  4895  0D78                     l1038:	
  4896                           	line	42
  4897                           	
  4898  0D78                     l4682:	
  4899                           ;UART.C: 42: usartstring("AT+CPIN?\r");
  4900  0D78  3092               	movlw	low(STR_4|8000h)
  4901  0D79  00C9               	movwf	(?_usartstring)
  4902  0D7A  309A               	movlw	high(STR_4|8000h)
  4903  0D7B  00CA               	movwf	((?_usartstring))+1
  4904  0D7C  160A  118A  24A6   	fcall	_usartstring
              120A  158A         
  4905                           	line	43
  4906                           	
  4907  0D81                     l4684:	
  4908                           ;UART.C: 43: transmit(0x0D);
  4909  0D81  300D               	movlw	(0Dh)
  4910  0D82  160A  118A  234D   	fcall	_transmit
              120A  158A         
  4911                           	line	44
  4912                           ;UART.C: 44: while((d=receive())!='K');
  4913  0D87  2D89               	goto	l4686
  4914                           	
  4915  0D88                     l1040:	
  4916  0D88  2D89               	goto	l4686
  4917                           	
  4918  0D89                     l1039:	
  4919                           	
  4920  0D89                     l4686:	
  4921  0D89  160A  118A  23AC   	fcall	_receive
              120A  158A         
  4922  0D8E  1283               	bcf	status, 5	;RP0=0, select bank0
  4923  0D8F  1303               	bcf	status, 6	;RP1=0, select bank0
  4924  0D90  00D1               	movwf	(gsm_init@d)
  4925  0D91  3A4B               	xorlw	04Bh
  4926  0D92  1D03               	skipz
  4927  0D93  2D95               	goto	u3731
  4928  0D94  2D96               	goto	u3730
  4929  0D95                     u3731:
  4930  0D95  2D89               	goto	l4686
  4931  0D96                     u3730:
  4932  0D96  2D97               	goto	l4688
  4933                           	
  4934  0D97                     l1041:	
  4935                           	line	46
  4936                           	
  4937  0D97                     l4688:	
  4938                           ;UART.C: 46: usartstring("AT+CSDH=1\r");
  4939  0D97  3087               	movlw	low(STR_5|8000h)
  4940  0D98  00C9               	movwf	(?_usartstring)
  4941  0D99  309A               	movlw	high(STR_5|8000h)
  4942  0D9A  00CA               	movwf	((?_usartstring))+1
  4943  0D9B  160A  118A  24A6   	fcall	_usartstring
              120A  158A         
  4944                           	line	47
  4945                           	
  4946  0DA0                     l4690:	
  4947                           ;UART.C: 47: transmit(0x0D);
  4948  0DA0  300D               	movlw	(0Dh)
  4949  0DA1  160A  118A  234D   	fcall	_transmit
              120A  158A         
  4950                           	line	48
  4951                           ;UART.C: 48: while((d=receive())!='K');
  4952  0DA6  2DA8               	goto	l4692
  4953                           	
  4954  0DA7                     l1043:	
  4955  0DA7  2DA8               	goto	l4692
  4956                           	
  4957  0DA8                     l1042:	
  4958                           	
  4959  0DA8                     l4692:	
  4960  0DA8  160A  118A  23AC   	fcall	_receive
              120A  158A         
  4961  0DAD  1283               	bcf	status, 5	;RP0=0, select bank0
  4962  0DAE  1303               	bcf	status, 6	;RP1=0, select bank0
  4963  0DAF  00D1               	movwf	(gsm_init@d)
  4964  0DB0  3A4B               	xorlw	04Bh
  4965  0DB1  1D03               	skipz
  4966  0DB2  2DB4               	goto	u3741
  4967  0DB3  2DB5               	goto	u3740
  4968  0DB4                     u3741:
  4969  0DB4  2DA8               	goto	l4692
  4970  0DB5                     u3740:
  4971  0DB5  2DB6               	goto	l4694
  4972                           	
  4973  0DB6                     l1044:	
  4974                           	line	50
  4975                           	
  4976  0DB6                     l4694:	
  4977                           ;UART.C: 50: usartstring("AT+CMGF=1\r");
  4978  0DB6  307C               	movlw	low(STR_6|8000h)
  4979  0DB7  00C9               	movwf	(?_usartstring)
  4980  0DB8  309A               	movlw	high(STR_6|8000h)
  4981  0DB9  00CA               	movwf	((?_usartstring))+1
  4982  0DBA  160A  118A  24A6   	fcall	_usartstring
              120A  158A         
  4983                           	line	51
  4984                           	
  4985  0DBF                     l4696:	
  4986                           ;UART.C: 51: transmit(0x0D);
  4987  0DBF  300D               	movlw	(0Dh)
  4988  0DC0  160A  118A  234D   	fcall	_transmit
              120A  158A         
  4989                           	line	52
  4990                           ;UART.C: 52: while((d=receive())!='K');
  4991  0DC5  2DC7               	goto	l4698
  4992                           	
  4993  0DC6                     l1046:	
  4994  0DC6  2DC7               	goto	l4698
  4995                           	
  4996  0DC7                     l1045:	
  4997                           	
  4998  0DC7                     l4698:	
  4999  0DC7  160A  118A  23AC   	fcall	_receive
              120A  158A         
  5000  0DCC  1283               	bcf	status, 5	;RP0=0, select bank0
  5001  0DCD  1303               	bcf	status, 6	;RP1=0, select bank0
  5002  0DCE  00D1               	movwf	(gsm_init@d)
  5003  0DCF  3A4B               	xorlw	04Bh
  5004  0DD0  1D03               	skipz
  5005  0DD1  2DD3               	goto	u3751
  5006  0DD2  2DD4               	goto	u3750
  5007  0DD3                     u3751:
  5008  0DD3  2DC7               	goto	l4698
  5009  0DD4                     u3750:
  5010  0DD4  2DD5               	goto	l4700
  5011                           	
  5012  0DD5                     l1047:	
  5013                           	line	54
  5014                           	
  5015  0DD5                     l4700:	
  5016                           ;UART.C: 54: usartstring("AT+CNMI=2,2,0,0,0\r");
  5017  0DD5  30A0               	movlw	low(STR_7|8000h)
  5018  0DD6  00C9               	movwf	(?_usartstring)
  5019  0DD7  3099               	movlw	high(STR_7|8000h)
  5020  0DD8  00CA               	movwf	((?_usartstring))+1
  5021  0DD9  160A  118A  24A6   	fcall	_usartstring
              120A  158A         
  5022                           	line	55
  5023                           	
  5024  0DDE                     l4702:	
  5025                           ;UART.C: 55: transmit(0x0D);
  5026  0DDE  300D               	movlw	(0Dh)
  5027  0DDF  160A  118A  234D   	fcall	_transmit
              120A  158A         
  5028                           	line	56
  5029                           ;UART.C: 56: while((d=receive())!='K');
  5030  0DE4  2DE6               	goto	l4704
  5031                           	
  5032  0DE5                     l1049:	
  5033  0DE5  2DE6               	goto	l4704
  5034                           	
  5035  0DE6                     l1048:	
  5036                           	
  5037  0DE6                     l4704:	
  5038  0DE6  160A  118A  23AC   	fcall	_receive
              120A  158A         
  5039  0DEB  1283               	bcf	status, 5	;RP0=0, select bank0
  5040  0DEC  1303               	bcf	status, 6	;RP1=0, select bank0
  5041  0DED  00D1               	movwf	(gsm_init@d)
  5042  0DEE  3A4B               	xorlw	04Bh
  5043  0DEF  1D03               	skipz
  5044  0DF0  2DF2               	goto	u3761
  5045  0DF1  2DF3               	goto	u3760
  5046  0DF2                     u3761:
  5047  0DF2  2DE6               	goto	l4704
  5048  0DF3                     u3760:
  5049  0DF3  2DF4               	goto	l4706
  5050                           	
  5051  0DF4                     l1050:	
  5052                           	line	57
  5053                           	
  5054  0DF4                     l4706:	
  5055                           ;UART.C: 57: lcdcmd(0x80);
  5056  0DF4  3080               	movlw	(080h)
  5057  0DF5  160A  118A  252C   	fcall	_lcdcmd
              120A  158A         
  5058                           	line	58
  5059                           	
  5060  0DFA                     l4708:	
  5061                           ;UART.C: 58: lcdstring("GSM READY");
  5062  0DFA  309C               	movlw	low(STR_8|8000h)
  5063  0DFB  1283               	bcf	status, 5	;RP0=0, select bank0
  5064  0DFC  1303               	bcf	status, 6	;RP1=0, select bank0
  5065  0DFD  00CF               	movwf	(?_lcdstring)
  5066  0DFE  309A               	movlw	high(STR_8|8000h)
  5067  0DFF  00D0               	movwf	((?_lcdstring))+1
  5068  0E00  160A  118A  24D2   	fcall	_lcdstring
              120A  158A         
  5069                           	line	59
  5070                           	
  5071  0E05                     l4710:	
  5072                           ;UART.C: 59: DelayS(10);
  5073  0E05  300A               	movlw	(0Ah)
  5074  0E06  160A  118A  2411   	fcall	_DelayS
              120A  158A         
  5075                           	line	60
  5076                           	
  5077  0E0B                     l4712:	
  5078                           ;UART.C: 60: lcdcmd(0x01);
  5079  0E0B  3001               	movlw	(01h)
  5080  0E0C  160A  118A  252C   	fcall	_lcdcmd
              120A  158A         
  5081                           	line	61
  5082                           	
  5083  0E11                     l1051:	
  5084  0E11  0008               	return
  5085                           	opt stack 0
  5086                           GLOBAL	__end_of_gsm_init
  5087  0E12                     	__end_of_gsm_init:
  5088 ;; =============== function _gsm_init ends ============
  5089                           
  5090                           	signat	_gsm_init,88
  5091                           	global	_DisplayKerosene
  5092                           psect	text899,local,class=CODE,delta=2
  5093                           global __ptext899
  5094  086C                     __ptext899:
  5095                           
  5096 ;; *************** function _DisplayKerosene *****************
  5097 ;; Defined at:
  5098 ;;		line 140 in file "F:\PiROOT_Tech\student_projects\AutomaticRationCardSystem\Main.c"
  5099 ;; Parameters:    Size  Location     Type
  5100 ;;  Location        1    wreg     unsigned char 
  5101 ;;  Kerosene        1   16[BANK0 ] unsigned char 
  5102 ;; Auto vars:     Size  Location     Type
  5103 ;;  Location        1   19[BANK0 ] unsigned char 
  5104 ;; Return value:  Size  Location     Type
  5105 ;;		None               void
  5106 ;; Registers used:
  5107 ;;		wreg, fsr0l, fsr0h, status,2, status,0, btemp+1, pclath, cstack
  5108 ;; Tracked objects:
  5109 ;;		On entry : 0/0
  5110 ;;		On exit  : 0/0
  5111 ;;		Unchanged: 0/0
  5112 ;; Data sizes:     COMMON   BANK0   BANK1   BANK3   BANK2
  5113 ;;      Params:         0       1       0       0       0
  5114 ;;      Locals:         0       1       0       0       0
  5115 ;;      Temps:          0       2       0       0       0
  5116 ;;      Totals:         0       4       0       0       0
  5117 ;;Total ram usage:        4 bytes
  5118 ;; Hardware stack levels used:    1
  5119 ;; Hardware stack levels required when called:    5
  5120 ;; This function calls:
  5121 ;;		_lcdcmd
  5122 ;;		___awdiv
  5123 ;;		_lcddata
  5124 ;;		___awmod
  5125 ;; This function is called by:
  5126 ;;		_main
  5127 ;; This function uses a non-reentrant model
  5128 ;;
  5129                           psect	text899
  5130                           	file	"F:\PiROOT_Tech\student_projects\AutomaticRationCardSystem\Main.c"
  5131                           	line	140
  5132                           	global	__size_of_DisplayKerosene
  5133  0054                     	__size_of_DisplayKerosene	equ	__end_of_DisplayKerosene-_DisplayKerosene
  5134                           	
  5135  086C                     _DisplayKerosene:	
  5136                           	opt	stack 2
  5137                           ; Regs used in _DisplayKerosene: [wreg-fsr0h+status,2+status,0+btemp+1+pclath+cstack]
  5138                           ;DisplayKerosene@Location stored from wreg
  5139  086C  1283               	bcf	status, 5	;RP0=0, select bank0
  5140  086D  1303               	bcf	status, 6	;RP1=0, select bank0
  5141  086E  00DB               	movwf	(DisplayKerosene@Location)
  5142                           	line	141
  5143                           	
  5144  086F                     l4662:	
  5145                           ;Main.c: 141: lcdcmd(Location);
  5146  086F  085B               	movf	(DisplayKerosene@Location),w
  5147  0870  160A  118A  252C   	fcall	_lcdcmd
              120A  158A         
  5148                           	line	142
  5149                           	
  5150  0875                     l4664:	
  5151                           ;Main.c: 142: lcddata(digit[Kerosene/10]);
  5152  0875  300A               	movlw	low(0Ah)
  5153  0876  1283               	bcf	status, 5	;RP0=0, select bank0
  5154  0877  1303               	bcf	status, 6	;RP1=0, select bank0
  5155  0878  00CF               	movwf	(?___awdiv)
  5156  0879  3000               	movlw	high(0Ah)
  5157  087A  00D0               	movwf	((?___awdiv))+1
  5158  087B  0858               	movf	(DisplayKerosene@Kerosene),w
  5159  087C  00D9               	movwf	(??_DisplayKerosene+0)+0
  5160  087D  01DA               	clrf	(??_DisplayKerosene+0)+0+1
  5161  087E  0859               	movf	0+(??_DisplayKerosene+0)+0,w
  5162  087F  00D1               	movwf	0+(?___awdiv)+02h
  5163  0880  085A               	movf	1+(??_DisplayKerosene+0)+0,w
  5164  0881  00D2               	movwf	1+(?___awdiv)+02h
  5165  0882  120A  158A  2320   	fcall	___awdiv
              120A  158A         
  5166  0887  1283               	bcf	status, 5	;RP0=0, select bank0
  5167  0888  1303               	bcf	status, 6	;RP1=0, select bank0
  5168  0889  084F               	movf	(0+(?___awdiv)),w
  5169  088A  3E1D               	addlw	low(_digit|8000h)
  5170  088B  0084               	movwf	fsr0
  5171  088C  3098               	movlw	high(_digit|8000h)
  5172  088D  1803               	skipnc
  5173  088E  3E01               	addlw	1
  5174  088F  00FF               	movwf	btemp+1
  5175  0890  160A  158A  2000   	fcall	stringtab
              120A  158A         
  5176  0895  160A  118A  255A   	fcall	_lcddata
              120A  158A         
  5177                           	line	143
  5178                           	
  5179  089A                     l4666:	
  5180                           ;Main.c: 143: lcddata(digit[Kerosene%10]);
  5181  089A  300A               	movlw	low(0Ah)
  5182  089B  1283               	bcf	status, 5	;RP0=0, select bank0
  5183  089C  1303               	bcf	status, 6	;RP1=0, select bank0
  5184  089D  00C8               	movwf	(?___awmod)
  5185  089E  3000               	movlw	high(0Ah)
  5186  089F  00C9               	movwf	((?___awmod))+1
  5187  08A0  0858               	movf	(DisplayKerosene@Kerosene),w
  5188  08A1  00D9               	movwf	(??_DisplayKerosene+0)+0
  5189  08A2  01DA               	clrf	(??_DisplayKerosene+0)+0+1
  5190  08A3  0859               	movf	0+(??_DisplayKerosene+0)+0,w
  5191  08A4  00CA               	movwf	0+(?___awmod)+02h
  5192  08A5  085A               	movf	1+(??_DisplayKerosene+0)+0,w
  5193  08A6  00CB               	movwf	1+(?___awmod)+02h
  5194  08A7  120A  158A  21CF   	fcall	___awmod
              120A  158A         
  5195  08AC  1283               	bcf	status, 5	;RP0=0, select bank0
  5196  08AD  1303               	bcf	status, 6	;RP1=0, select bank0
  5197  08AE  0848               	movf	(0+(?___awmod)),w
  5198  08AF  3E1D               	addlw	low(_digit|8000h)
  5199  08B0  0084               	movwf	fsr0
  5200  08B1  3098               	movlw	high(_digit|8000h)
  5201  08B2  1803               	skipnc
  5202  08B3  3E01               	addlw	1
  5203  08B4  00FF               	movwf	btemp+1
  5204  08B5  160A  158A  2000   	fcall	stringtab
              120A  158A         
  5205  08BA  160A  118A  255A   	fcall	_lcddata
              120A  158A         
  5206                           	line	144
  5207                           	
  5208  08BF                     l1134:	
  5209  08BF  0008               	return
  5210                           	opt stack 0
  5211                           GLOBAL	__end_of_DisplayKerosene
  5212  08C0                     	__end_of_DisplayKerosene:
  5213 ;; =============== function _DisplayKerosene ends ============
  5214                           
  5215                           	signat	_DisplayKerosene,8312
  5216                           	global	_DisplayRise
  5217                           psect	text900,local,class=CODE,delta=2
  5218                           global __ptext900
  5219  0818                     __ptext900:
  5220                           
  5221 ;; *************** function _DisplayRise *****************
  5222 ;; Defined at:
  5223 ;;		line 134 in file "F:\PiROOT_Tech\student_projects\AutomaticRationCardSystem\Main.c"
  5224 ;; Parameters:    Size  Location     Type
  5225 ;;  Location        1    wreg     unsigned char 
  5226 ;;  Rise            1   16[BANK0 ] unsigned char 
  5227 ;; Auto vars:     Size  Location     Type
  5228 ;;  Location        1   19[BANK0 ] unsigned char 
  5229 ;; Return value:  Size  Location     Type
  5230 ;;		None               void
  5231 ;; Registers used:
  5232 ;;		wreg, fsr0l, fsr0h, status,2, status,0, btemp+1, pclath, cstack
  5233 ;; Tracked objects:
  5234 ;;		On entry : 0/0
  5235 ;;		On exit  : 0/0
  5236 ;;		Unchanged: 0/0
  5237 ;; Data sizes:     COMMON   BANK0   BANK1   BANK3   BANK2
  5238 ;;      Params:         0       1       0       0       0
  5239 ;;      Locals:         0       1       0       0       0
  5240 ;;      Temps:          0       2       0       0       0
  5241 ;;      Totals:         0       4       0       0       0
  5242 ;;Total ram usage:        4 bytes
  5243 ;; Hardware stack levels used:    1
  5244 ;; Hardware stack levels required when called:    5
  5245 ;; This function calls:
  5246 ;;		_lcdcmd
  5247 ;;		___awdiv
  5248 ;;		_lcddata
  5249 ;;		___awmod
  5250 ;; This function is called by:
  5251 ;;		_main
  5252 ;; This function uses a non-reentrant model
  5253 ;;
  5254                           psect	text900
  5255                           	file	"F:\PiROOT_Tech\student_projects\AutomaticRationCardSystem\Main.c"
  5256                           	line	134
  5257                           	global	__size_of_DisplayRise
  5258  0054                     	__size_of_DisplayRise	equ	__end_of_DisplayRise-_DisplayRise
  5259                           	
  5260  0818                     _DisplayRise:	
  5261                           	opt	stack 2
  5262                           ; Regs used in _DisplayRise: [wreg-fsr0h+status,2+status,0+btemp+1+pclath+cstack]
  5263                           ;DisplayRise@Location stored from wreg
  5264  0818  1283               	bcf	status, 5	;RP0=0, select bank0
  5265  0819  1303               	bcf	status, 6	;RP1=0, select bank0
  5266  081A  00DB               	movwf	(DisplayRise@Location)
  5267                           	line	135
  5268                           	
  5269  081B                     l4656:	
  5270                           ;Main.c: 135: lcdcmd(Location);
  5271  081B  085B               	movf	(DisplayRise@Location),w
  5272  081C  160A  118A  252C   	fcall	_lcdcmd
              120A  158A         
  5273                           	line	136
  5274                           	
  5275  0821                     l4658:	
  5276                           ;Main.c: 136: lcddata(digit[Rise/10]);
  5277  0821  300A               	movlw	low(0Ah)
  5278  0822  1283               	bcf	status, 5	;RP0=0, select bank0
  5279  0823  1303               	bcf	status, 6	;RP1=0, select bank0
  5280  0824  00CF               	movwf	(?___awdiv)
  5281  0825  3000               	movlw	high(0Ah)
  5282  0826  00D0               	movwf	((?___awdiv))+1
  5283  0827  0858               	movf	(DisplayRise@Rise),w
  5284  0828  00D9               	movwf	(??_DisplayRise+0)+0
  5285  0829  01DA               	clrf	(??_DisplayRise+0)+0+1
  5286  082A  0859               	movf	0+(??_DisplayRise+0)+0,w
  5287  082B  00D1               	movwf	0+(?___awdiv)+02h
  5288  082C  085A               	movf	1+(??_DisplayRise+0)+0,w
  5289  082D  00D2               	movwf	1+(?___awdiv)+02h
  5290  082E  120A  158A  2320   	fcall	___awdiv
              120A  158A         
  5291  0833  1283               	bcf	status, 5	;RP0=0, select bank0
  5292  0834  1303               	bcf	status, 6	;RP1=0, select bank0
  5293  0835  084F               	movf	(0+(?___awdiv)),w
  5294  0836  3E1D               	addlw	low(_digit|8000h)
  5295  0837  0084               	movwf	fsr0
  5296  0838  3098               	movlw	high(_digit|8000h)
  5297  0839  1803               	skipnc
  5298  083A  3E01               	addlw	1
  5299  083B  00FF               	movwf	btemp+1
  5300  083C  160A  158A  2000   	fcall	stringtab
              120A  158A         
  5301  0841  160A  118A  255A   	fcall	_lcddata
              120A  158A         
  5302                           	line	137
  5303                           	
  5304  0846                     l4660:	
  5305                           ;Main.c: 137: lcddata(digit[Rise%10]);
  5306  0846  300A               	movlw	low(0Ah)
  5307  0847  1283               	bcf	status, 5	;RP0=0, select bank0
  5308  0848  1303               	bcf	status, 6	;RP1=0, select bank0
  5309  0849  00C8               	movwf	(?___awmod)
  5310  084A  3000               	movlw	high(0Ah)
  5311  084B  00C9               	movwf	((?___awmod))+1
  5312  084C  0858               	movf	(DisplayRise@Rise),w
  5313  084D  00D9               	movwf	(??_DisplayRise+0)+0
  5314  084E  01DA               	clrf	(??_DisplayRise+0)+0+1
  5315  084F  0859               	movf	0+(??_DisplayRise+0)+0,w
  5316  0850  00CA               	movwf	0+(?___awmod)+02h
  5317  0851  085A               	movf	1+(??_DisplayRise+0)+0,w
  5318  0852  00CB               	movwf	1+(?___awmod)+02h
  5319  0853  120A  158A  21CF   	fcall	___awmod
              120A  158A         
  5320  0858  1283               	bcf	status, 5	;RP0=0, select bank0
  5321  0859  1303               	bcf	status, 6	;RP1=0, select bank0
  5322  085A  0848               	movf	(0+(?___awmod)),w
  5323  085B  3E1D               	addlw	low(_digit|8000h)
  5324  085C  0084               	movwf	fsr0
  5325  085D  3098               	movlw	high(_digit|8000h)
  5326  085E  1803               	skipnc
  5327  085F  3E01               	addlw	1
  5328  0860  00FF               	movwf	btemp+1
  5329  0861  160A  158A  2000   	fcall	stringtab
              120A  158A         
  5330  0866  160A  118A  255A   	fcall	_lcddata
              120A  158A         
  5331                           	line	138
  5332                           	
  5333  086B                     l1131:	
  5334  086B  0008               	return
  5335                           	opt stack 0
  5336                           GLOBAL	__end_of_DisplayRise
  5337  086C                     	__end_of_DisplayRise:
  5338 ;; =============== function _DisplayRise ends ============
  5339                           
  5340                           	signat	_DisplayRise,8312
  5341                           	global	_DisplaySugar
  5342                           psect	text901,local,class=CODE,delta=2
  5343                           global __ptext901
  5344  17AC                     __ptext901:
  5345                           
  5346 ;; *************** function _DisplaySugar *****************
  5347 ;; Defined at:
  5348 ;;		line 128 in file "F:\PiROOT_Tech\student_projects\AutomaticRationCardSystem\Main.c"
  5349 ;; Parameters:    Size  Location     Type
  5350 ;;  Location        1    wreg     unsigned char 
  5351 ;;  Sugar           1   16[BANK0 ] unsigned char 
  5352 ;; Auto vars:     Size  Location     Type
  5353 ;;  Location        1   19[BANK0 ] unsigned char 
  5354 ;; Return value:  Size  Location     Type
  5355 ;;		None               void
  5356 ;; Registers used:
  5357 ;;		wreg, fsr0l, fsr0h, status,2, status,0, btemp+1, pclath, cstack
  5358 ;; Tracked objects:
  5359 ;;		On entry : 0/0
  5360 ;;		On exit  : 0/0
  5361 ;;		Unchanged: 0/0
  5362 ;; Data sizes:     COMMON   BANK0   BANK1   BANK3   BANK2
  5363 ;;      Params:         0       1       0       0       0
  5364 ;;      Locals:         0       1       0       0       0
  5365 ;;      Temps:          0       2       0       0       0
  5366 ;;      Totals:         0       4       0       0       0
  5367 ;;Total ram usage:        4 bytes
  5368 ;; Hardware stack levels used:    1
  5369 ;; Hardware stack levels required when called:    5
  5370 ;; This function calls:
  5371 ;;		_lcdcmd
  5372 ;;		___awdiv
  5373 ;;		_lcddata
  5374 ;;		___awmod
  5375 ;; This function is called by:
  5376 ;;		_main
  5377 ;; This function uses a non-reentrant model
  5378 ;;
  5379                           psect	text901
  5380                           	file	"F:\PiROOT_Tech\student_projects\AutomaticRationCardSystem\Main.c"
  5381                           	line	128
  5382                           	global	__size_of_DisplaySugar
  5383  0054                     	__size_of_DisplaySugar	equ	__end_of_DisplaySugar-_DisplaySugar
  5384                           	
  5385  17AC                     _DisplaySugar:	
  5386                           	opt	stack 2
  5387                           ; Regs used in _DisplaySugar: [wreg-fsr0h+status,2+status,0+btemp+1+pclath+cstack]
  5388                           ;DisplaySugar@Location stored from wreg
  5389  17AC  1283               	bcf	status, 5	;RP0=0, select bank0
  5390  17AD  1303               	bcf	status, 6	;RP1=0, select bank0
  5391  17AE  00DB               	movwf	(DisplaySugar@Location)
  5392                           	line	129
  5393                           	
  5394  17AF                     l4650:	
  5395                           ;Main.c: 129: lcdcmd(Location);
  5396  17AF  085B               	movf	(DisplaySugar@Location),w
  5397  17B0  160A  118A  252C   	fcall	_lcdcmd
              160A  118A         
  5398                           	line	130
  5399                           	
  5400  17B5                     l4652:	
  5401                           ;Main.c: 130: lcddata(digit[Sugar/10]);
  5402  17B5  300A               	movlw	low(0Ah)
  5403  17B6  1283               	bcf	status, 5	;RP0=0, select bank0
  5404  17B7  1303               	bcf	status, 6	;RP1=0, select bank0
  5405  17B8  00CF               	movwf	(?___awdiv)
  5406  17B9  3000               	movlw	high(0Ah)
  5407  17BA  00D0               	movwf	((?___awdiv))+1
  5408  17BB  0858               	movf	(DisplaySugar@Sugar),w
  5409  17BC  00D9               	movwf	(??_DisplaySugar+0)+0
  5410  17BD  01DA               	clrf	(??_DisplaySugar+0)+0+1
  5411  17BE  0859               	movf	0+(??_DisplaySugar+0)+0,w
  5412  17BF  00D1               	movwf	0+(?___awdiv)+02h
  5413  17C0  085A               	movf	1+(??_DisplaySugar+0)+0,w
  5414  17C1  00D2               	movwf	1+(?___awdiv)+02h
  5415  17C2  120A  158A  2320   	fcall	___awdiv
              160A  118A         
  5416  17C7  1283               	bcf	status, 5	;RP0=0, select bank0
  5417  17C8  1303               	bcf	status, 6	;RP1=0, select bank0
  5418  17C9  084F               	movf	(0+(?___awdiv)),w
  5419  17CA  3E1D               	addlw	low(_digit|8000h)
  5420  17CB  0084               	movwf	fsr0
  5421  17CC  3098               	movlw	high(_digit|8000h)
  5422  17CD  1803               	skipnc
  5423  17CE  3E01               	addlw	1
  5424  17CF  00FF               	movwf	btemp+1
  5425  17D0  160A  158A  2000   	fcall	stringtab
              160A  118A         
  5426  17D5  160A  118A  255A   	fcall	_lcddata
              160A  118A         
  5427                           	line	131
  5428                           	
  5429  17DA                     l4654:	
  5430                           ;Main.c: 131: lcddata(digit[Sugar%10]);
  5431  17DA  300A               	movlw	low(0Ah)
  5432  17DB  1283               	bcf	status, 5	;RP0=0, select bank0
  5433  17DC  1303               	bcf	status, 6	;RP1=0, select bank0
  5434  17DD  00C8               	movwf	(?___awmod)
  5435  17DE  3000               	movlw	high(0Ah)
  5436  17DF  00C9               	movwf	((?___awmod))+1
  5437  17E0  0858               	movf	(DisplaySugar@Sugar),w
  5438  17E1  00D9               	movwf	(??_DisplaySugar+0)+0
  5439  17E2  01DA               	clrf	(??_DisplaySugar+0)+0+1
  5440  17E3  0859               	movf	0+(??_DisplaySugar+0)+0,w
  5441  17E4  00CA               	movwf	0+(?___awmod)+02h
  5442  17E5  085A               	movf	1+(??_DisplaySugar+0)+0,w
  5443  17E6  00CB               	movwf	1+(?___awmod)+02h
  5444  17E7  120A  158A  21CF   	fcall	___awmod
              160A  118A         
  5445  17EC  1283               	bcf	status, 5	;RP0=0, select bank0
  5446  17ED  1303               	bcf	status, 6	;RP1=0, select bank0
  5447  17EE  0848               	movf	(0+(?___awmod)),w
  5448  17EF  3E1D               	addlw	low(_digit|8000h)
  5449  17F0  0084               	movwf	fsr0
  5450  17F1  3098               	movlw	high(_digit|8000h)
  5451  17F2  1803               	skipnc
  5452  17F3  3E01               	addlw	1
  5453  17F4  00FF               	movwf	btemp+1
  5454  17F5  160A  158A  2000   	fcall	stringtab
              160A  118A         
  5455  17FA  160A  118A  255A   	fcall	_lcddata
              160A  118A         
  5456                           	line	132
  5457                           	
  5458  17FF                     l1128:	
  5459  17FF  0008               	return
  5460                           	opt stack 0
  5461                           GLOBAL	__end_of_DisplaySugar
  5462  1800                     	__end_of_DisplaySugar:
  5463 ;; =============== function _DisplaySugar ends ============
  5464                           
  5465                           	signat	_DisplaySugar,8312
  5466                           	global	_DisplayAmnt
  5467                           psect	text902,local,class=CODE,delta=2
  5468                           global __ptext902
  5469  070A                     __ptext902:
  5470                           
  5471 ;; *************** function _DisplayAmnt *****************
  5472 ;; Defined at:
  5473 ;;		line 82 in file "F:\PiROOT_Tech\student_projects\AutomaticRationCardSystem\Main.c"
  5474 ;; Parameters:    Size  Location     Type
  5475 ;;  Location        1    wreg     unsigned char 
  5476 ;;  Amnt            2   16[BANK0 ] int 
  5477 ;; Auto vars:     Size  Location     Type
  5478 ;;  Location        1   20[BANK0 ] unsigned char 
  5479 ;; Return value:  Size  Location     Type
  5480 ;;		None               void
  5481 ;; Registers used:
  5482 ;;		wreg, fsr0l, fsr0h, status,2, status,0, btemp+1, pclath, cstack
  5483 ;; Tracked objects:
  5484 ;;		On entry : 0/0
  5485 ;;		On exit  : 0/0
  5486 ;;		Unchanged: 0/0
  5487 ;; Data sizes:     COMMON   BANK0   BANK1   BANK3   BANK2
  5488 ;;      Params:         0       2       0       0       0
  5489 ;;      Locals:         0       3       0       0       0
  5490 ;;      Temps:          0       0       0       0       0
  5491 ;;      Totals:         0       5       0       0       0
  5492 ;;Total ram usage:        5 bytes
  5493 ;; Hardware stack levels used:    1
  5494 ;; Hardware stack levels required when called:    5
  5495 ;; This function calls:
  5496 ;;		_lcdcmd
  5497 ;;		___awdiv
  5498 ;;		_lcddata
  5499 ;;		___awmod
  5500 ;; This function is called by:
  5501 ;;		_DisplayStock
  5502 ;;		_main
  5503 ;; This function uses a non-reentrant model
  5504 ;;
  5505                           psect	text902
  5506                           	file	"F:\PiROOT_Tech\student_projects\AutomaticRationCardSystem\Main.c"
  5507                           	line	82
  5508                           	global	__size_of_DisplayAmnt
  5509  00F5                     	__size_of_DisplayAmnt	equ	__end_of_DisplayAmnt-_DisplayAmnt
  5510                           	
  5511  070A                     _DisplayAmnt:	
  5512                           	opt	stack 1
  5513                           ; Regs used in _DisplayAmnt: [wreg-fsr0h+status,2+status,0+btemp+1+pclath+cstack]
  5514                           ;DisplayAmnt@Location stored from wreg
  5515  070A  1283               	bcf	status, 5	;RP0=0, select bank0
  5516  070B  1303               	bcf	status, 6	;RP1=0, select bank0
  5517  070C  00DC               	movwf	(DisplayAmnt@Location)
  5518                           	line	83
  5519                           	
  5520  070D                     l4640:	
  5521                           ;Main.c: 83: lcdcmd(Location);
  5522  070D  085C               	movf	(DisplayAmnt@Location),w
  5523  070E  160A  118A  252C   	fcall	_lcdcmd
              120A  118A         
  5524                           	line	84
  5525                           	
  5526  0713                     l4642:	
  5527                           ;Main.c: 84: lcddata(digit[Amnt/1000]);
  5528  0713  30E8               	movlw	low(03E8h)
  5529  0714  1283               	bcf	status, 5	;RP0=0, select bank0
  5530  0715  1303               	bcf	status, 6	;RP1=0, select bank0
  5531  0716  00CF               	movwf	(?___awdiv)
  5532  0717  3003               	movlw	high(03E8h)
  5533  0718  00D0               	movwf	((?___awdiv))+1
  5534  0719  0859               	movf	(DisplayAmnt@Amnt+1),w
  5535  071A  01D2               	clrf	1+(?___awdiv)+02h
  5536  071B  07D2               	addwf	1+(?___awdiv)+02h
  5537  071C  0858               	movf	(DisplayAmnt@Amnt),w
  5538  071D  01D1               	clrf	0+(?___awdiv)+02h
  5539  071E  07D1               	addwf	0+(?___awdiv)+02h
  5540                           
  5541  071F  120A  158A  2320   	fcall	___awdiv
              120A  118A         
  5542  0724  1283               	bcf	status, 5	;RP0=0, select bank0
  5543  0725  1303               	bcf	status, 6	;RP1=0, select bank0
  5544  0726  084F               	movf	(0+(?___awdiv)),w
  5545  0727  3E1D               	addlw	low(_digit|8000h)
  5546  0728  0084               	movwf	fsr0
  5547  0729  3098               	movlw	high(_digit|8000h)
  5548  072A  1803               	skipnc
  5549  072B  3E01               	addlw	1
  5550  072C  00FF               	movwf	btemp+1
  5551  072D  160A  158A  2000   	fcall	stringtab
              120A  118A         
  5552  0732  160A  118A  255A   	fcall	_lcddata
              120A  118A         
  5553                           	line	85
  5554                           	
  5555  0737                     l4644:	
  5556                           ;Main.c: 85: lcddata(digit[Amnt%1000/100]);
  5557  0737  3064               	movlw	low(064h)
  5558  0738  1283               	bcf	status, 5	;RP0=0, select bank0
  5559  0739  1303               	bcf	status, 6	;RP1=0, select bank0
  5560  073A  00CF               	movwf	(?___awdiv)
  5561  073B  3000               	movlw	high(064h)
  5562  073C  00D0               	movwf	((?___awdiv))+1
  5563  073D  0859               	movf	(DisplayAmnt@Amnt+1),w
  5564  073E  01CB               	clrf	1+(?___awmod)+02h
  5565  073F  07CB               	addwf	1+(?___awmod)+02h
  5566  0740  0858               	movf	(DisplayAmnt@Amnt),w
  5567  0741  01CA               	clrf	0+(?___awmod)+02h
  5568  0742  07CA               	addwf	0+(?___awmod)+02h
  5569                           
  5570  0743  30E8               	movlw	low(03E8h)
  5571  0744  00C8               	movwf	(?___awmod)
  5572  0745  3003               	movlw	high(03E8h)
  5573  0746  00C9               	movwf	((?___awmod))+1
  5574  0747  120A  158A  21CF   	fcall	___awmod
              120A  118A         
  5575  074C  1283               	bcf	status, 5	;RP0=0, select bank0
  5576  074D  1303               	bcf	status, 6	;RP1=0, select bank0
  5577  074E  0849               	movf	(1+(?___awmod)),w
  5578  074F  01D2               	clrf	1+(?___awdiv)+02h
  5579  0750  07D2               	addwf	1+(?___awdiv)+02h
  5580  0751  0848               	movf	(0+(?___awmod)),w
  5581  0752  01D1               	clrf	0+(?___awdiv)+02h
  5582  0753  07D1               	addwf	0+(?___awdiv)+02h
  5583                           
  5584  0754  120A  158A  2320   	fcall	___awdiv
              120A  118A         
  5585  0759  1283               	bcf	status, 5	;RP0=0, select bank0
  5586  075A  1303               	bcf	status, 6	;RP1=0, select bank0
  5587  075B  084F               	movf	(0+(?___awdiv)),w
  5588  075C  3E1D               	addlw	low(_digit|8000h)
  5589  075D  0084               	movwf	fsr0
  5590  075E  3098               	movlw	high(_digit|8000h)
  5591  075F  1803               	skipnc
  5592  0760  3E01               	addlw	1
  5593  0761  00FF               	movwf	btemp+1
  5594  0762  160A  158A  2000   	fcall	stringtab
              120A  118A         
  5595  0767  160A  118A  255A   	fcall	_lcddata
              120A  118A         
  5596                           	line	86
  5597                           	
  5598  076C                     l4646:	
  5599                           ;Main.c: 86: lcddata(digit[Amnt%1000%100/10]);
  5600  076C  300A               	movlw	low(0Ah)
  5601  076D  1283               	bcf	status, 5	;RP0=0, select bank0
  5602  076E  1303               	bcf	status, 6	;RP1=0, select bank0
  5603  076F  00CF               	movwf	(?___awdiv)
  5604  0770  3000               	movlw	high(0Ah)
  5605  0771  00D0               	movwf	((?___awdiv))+1
  5606  0772  0859               	movf	(DisplayAmnt@Amnt+1),w
  5607  0773  01CB               	clrf	1+(?___awmod)+02h
  5608  0774  07CB               	addwf	1+(?___awmod)+02h
  5609  0775  0858               	movf	(DisplayAmnt@Amnt),w
  5610  0776  01CA               	clrf	0+(?___awmod)+02h
  5611  0777  07CA               	addwf	0+(?___awmod)+02h
  5612                           
  5613  0778  30E8               	movlw	low(03E8h)
  5614  0779  00C8               	movwf	(?___awmod)
  5615  077A  3003               	movlw	high(03E8h)
  5616  077B  00C9               	movwf	((?___awmod))+1
  5617  077C  120A  158A  21CF   	fcall	___awmod
              120A  118A         
  5618  0781  1283               	bcf	status, 5	;RP0=0, select bank0
  5619  0782  1303               	bcf	status, 6	;RP1=0, select bank0
  5620  0783  0849               	movf	(1+(?___awmod)),w
  5621  0784  01CB               	clrf	1+(?___awmod)+02h
  5622  0785  07CB               	addwf	1+(?___awmod)+02h
  5623  0786  0848               	movf	(0+(?___awmod)),w
  5624  0787  01CA               	clrf	0+(?___awmod)+02h
  5625  0788  07CA               	addwf	0+(?___awmod)+02h
  5626                           
  5627  0789  3064               	movlw	low(064h)
  5628  078A  00C8               	movwf	(?___awmod)
  5629  078B  3000               	movlw	high(064h)
  5630  078C  00C9               	movwf	((?___awmod))+1
  5631  078D  120A  158A  21CF   	fcall	___awmod
              120A  118A         
  5632  0792  1283               	bcf	status, 5	;RP0=0, select bank0
  5633  0793  1303               	bcf	status, 6	;RP1=0, select bank0
  5634  0794  0849               	movf	(1+(?___awmod)),w
  5635  0795  01D2               	clrf	1+(?___awdiv)+02h
  5636  0796  07D2               	addwf	1+(?___awdiv)+02h
  5637  0797  0848               	movf	(0+(?___awmod)),w
  5638  0798  01D1               	clrf	0+(?___awdiv)+02h
  5639  0799  07D1               	addwf	0+(?___awdiv)+02h
  5640                           
  5641  079A  120A  158A  2320   	fcall	___awdiv
              120A  118A         
  5642  079F  1283               	bcf	status, 5	;RP0=0, select bank0
  5643  07A0  1303               	bcf	status, 6	;RP1=0, select bank0
  5644  07A1  084F               	movf	(0+(?___awdiv)),w
  5645  07A2  3E1D               	addlw	low(_digit|8000h)
  5646  07A3  0084               	movwf	fsr0
  5647  07A4  3098               	movlw	high(_digit|8000h)
  5648  07A5  1803               	skipnc
  5649  07A6  3E01               	addlw	1
  5650  07A7  00FF               	movwf	btemp+1
  5651  07A8  160A  158A  2000   	fcall	stringtab
              120A  118A         
  5652  07AD  160A  118A  255A   	fcall	_lcddata
              120A  118A         
  5653                           	line	87
  5654                           	
  5655  07B2                     l4648:	
  5656                           ;Main.c: 87: lcddata(digit[Amnt%1000%100%10]);
  5657  07B2  1283               	bcf	status, 5	;RP0=0, select bank0
  5658  07B3  1303               	bcf	status, 6	;RP1=0, select bank0
  5659  07B4  0859               	movf	(DisplayAmnt@Amnt+1),w
  5660  07B5  01CB               	clrf	1+(?___awmod)+02h
  5661  07B6  07CB               	addwf	1+(?___awmod)+02h
  5662  07B7  0858               	movf	(DisplayAmnt@Amnt),w
  5663  07B8  01CA               	clrf	0+(?___awmod)+02h
  5664  07B9  07CA               	addwf	0+(?___awmod)+02h
  5665                           
  5666  07BA  30E8               	movlw	low(03E8h)
  5667  07BB  00C8               	movwf	(?___awmod)
  5668  07BC  3003               	movlw	high(03E8h)
  5669  07BD  00C9               	movwf	((?___awmod))+1
  5670  07BE  120A  158A  21CF   	fcall	___awmod
              120A  118A         
  5671  07C3  1283               	bcf	status, 5	;RP0=0, select bank0
  5672  07C4  1303               	bcf	status, 6	;RP1=0, select bank0
  5673  07C5  0849               	movf	(1+(?___awmod)),w
  5674  07C6  01CB               	clrf	1+(?___awmod)+02h
  5675  07C7  07CB               	addwf	1+(?___awmod)+02h
  5676  07C8  0848               	movf	(0+(?___awmod)),w
  5677  07C9  01CA               	clrf	0+(?___awmod)+02h
  5678  07CA  07CA               	addwf	0+(?___awmod)+02h
  5679                           
  5680  07CB  3064               	movlw	low(064h)
  5681  07CC  00C8               	movwf	(?___awmod)
  5682  07CD  3000               	movlw	high(064h)
  5683  07CE  00C9               	movwf	((?___awmod))+1
  5684  07CF  120A  158A  21CF   	fcall	___awmod
              120A  118A         
  5685  07D4  1283               	bcf	status, 5	;RP0=0, select bank0
  5686  07D5  1303               	bcf	status, 6	;RP1=0, select bank0
  5687  07D6  0849               	movf	(1+(?___awmod)),w
  5688  07D7  01DB               	clrf	(_DisplayAmnt$1137+1)
  5689  07D8  07DB               	addwf	(_DisplayAmnt$1137+1)
  5690  07D9  0848               	movf	(0+(?___awmod)),w
  5691  07DA  01DA               	clrf	(_DisplayAmnt$1137)
  5692  07DB  07DA               	addwf	(_DisplayAmnt$1137)
  5693                           
  5694                           ;Main.c: 87: lcddata(digit[Amnt%1000%100%10]);
  5695  07DC  300A               	movlw	low(0Ah)
  5696  07DD  00C8               	movwf	(?___awmod)
  5697  07DE  3000               	movlw	high(0Ah)
  5698  07DF  00C9               	movwf	((?___awmod))+1
  5699  07E0  085B               	movf	(_DisplayAmnt$1137+1),w
  5700  07E1  01CB               	clrf	1+(?___awmod)+02h
  5701  07E2  07CB               	addwf	1+(?___awmod)+02h
  5702  07E3  085A               	movf	(_DisplayAmnt$1137),w
  5703  07E4  01CA               	clrf	0+(?___awmod)+02h
  5704  07E5  07CA               	addwf	0+(?___awmod)+02h
  5705                           
  5706  07E6  120A  158A  21CF   	fcall	___awmod
              120A  118A         
  5707  07EB  1283               	bcf	status, 5	;RP0=0, select bank0
  5708  07EC  1303               	bcf	status, 6	;RP1=0, select bank0
  5709  07ED  0848               	movf	(0+(?___awmod)),w
  5710  07EE  3E1D               	addlw	low(_digit|8000h)
  5711  07EF  0084               	movwf	fsr0
  5712  07F0  3098               	movlw	high(_digit|8000h)
  5713  07F1  1803               	skipnc
  5714  07F2  3E01               	addlw	1
  5715  07F3  00FF               	movwf	btemp+1
  5716  07F4  160A  158A  2000   	fcall	stringtab
              120A  118A         
  5717  07F9  160A  118A  255A   	fcall	_lcddata
              120A  118A         
  5718                           	line	88
  5719                           	
  5720  07FE                     l1116:	
  5721  07FE  0008               	return
  5722                           	opt stack 0
  5723                           GLOBAL	__end_of_DisplayAmnt
  5724  07FF                     	__end_of_DisplayAmnt:
  5725 ;; =============== function _DisplayAmnt ends ============
  5726                           
  5727                           	signat	_DisplayAmnt,8312
  5728                           	global	_lcdstring
  5729                           psect	text903,local,class=CODE,delta=2
  5730                           global __ptext903
  5731  14D2                     __ptext903:
  5732                           
  5733 ;; *************** function _lcdstring *****************
  5734 ;; Defined at:
  5735 ;;		line 90 in file "F:\PiROOT_Tech\student_projects\AutomaticRationCardSystem\lcd.c"
  5736 ;; Parameters:    Size  Location     Type
  5737 ;;  a               2    7[BANK0 ] PTR const unsigned char 
  5738 ;;		 -> STR_56(18), STR_55(18), STR_54(18), STR_53(21), 
  5739 ;;		 -> STR_52(21), STR_51(21), STR_50(21), STR_49(18), 
  5740 ;;		 -> STR_48(18), STR_47(18), STR_46(21), STR_45(21), 
  5741 ;;		 -> STR_44(21), STR_43(21), STR_42(18), STR_41(18), 
  5742 ;;		 -> STR_40(18), STR_39(21), STR_38(21), STR_37(21), 
  5743 ;;		 -> STR_36(21), STR_35(18), STR_34(18), STR_26(18), 
  5744 ;;		 -> STR_25(18), STR_24(18), STR_23(18), STR_22(22), 
  5745 ;;		 -> STR_21(22), STR_20(21), STR_19(21), sms(20), 
  5746 ;;		 -> STR_8(10), STR_2(17), STR_1(17), 
  5747 ;; Auto vars:     Size  Location     Type
  5748 ;;		None
  5749 ;; Return value:  Size  Location     Type
  5750 ;;		None               void
  5751 ;; Registers used:
  5752 ;;		wreg, fsr0l, fsr0h, status,2, status,0, btemp+1, pclath, cstack
  5753 ;; Tracked objects:
  5754 ;;		On entry : 0/0
  5755 ;;		On exit  : 0/0
  5756 ;;		Unchanged: 0/0
  5757 ;; Data sizes:     COMMON   BANK0   BANK1   BANK3   BANK2
  5758 ;;      Params:         0       2       0       0       0
  5759 ;;      Locals:         0       0       0       0       0
  5760 ;;      Temps:          0       0       0       0       0
  5761 ;;      Totals:         0       2       0       0       0
  5762 ;;Total ram usage:        2 bytes
  5763 ;; Hardware stack levels used:    1
  5764 ;; Hardware stack levels required when called:    5
  5765 ;; This function calls:
  5766 ;;		_lcddata
  5767 ;; This function is called by:
  5768 ;;		_gsm_init
  5769 ;;		_DisplayStock
  5770 ;;		_startup
  5771 ;;		_main
  5772 ;; This function uses a non-reentrant model
  5773 ;;
  5774                           psect	text903
  5775                           	file	"F:\PiROOT_Tech\student_projects\AutomaticRationCardSystem\lcd.c"
  5776                           	line	90
  5777                           	global	__size_of_lcdstring
  5778  002C                     	__size_of_lcdstring	equ	__end_of_lcdstring-_lcdstring
  5779                           	
  5780  14D2                     _lcdstring:	
  5781                           	opt	stack 1
  5782                           ; Regs used in _lcdstring: [wreg-fsr0h+status,2+status,0+btemp+1+pclath+cstack]
  5783                           	line	91
  5784                           	
  5785  14D2                     l4632:	
  5786                           ;lcd.c: 91: while(*a)
  5787  14D2  2CEC               	goto	l4638
  5788                           	
  5789  14D3                     l978:	
  5790                           	line	93
  5791                           	
  5792  14D3                     l4634:	
  5793                           ;lcd.c: 92: {
  5794                           ;lcd.c: 93: lcddata(*a++);
  5795  14D3  1283               	bcf	status, 5	;RP0=0, select bank0
  5796  14D4  1303               	bcf	status, 6	;RP1=0, select bank0
  5797  14D5  0850               	movf	(lcdstring@a+1),w
  5798  14D6  00FF               	movwf	btemp+1
  5799  14D7  084F               	movf	(lcdstring@a),w
  5800  14D8  0084               	movwf	fsr0
  5801  14D9  160A  158A  2000   	fcall	stringtab
              160A  118A         
  5802  14DE  160A  118A  255A   	fcall	_lcddata
              160A  118A         
  5803                           	
  5804  14E3                     l4636:	
  5805  14E3  3001               	movlw	low(01h)
  5806  14E4  1283               	bcf	status, 5	;RP0=0, select bank0
  5807  14E5  1303               	bcf	status, 6	;RP1=0, select bank0
  5808  14E6  07CF               	addwf	(lcdstring@a),f
  5809  14E7  1803               	skipnc
  5810  14E8  0AD0               	incf	(lcdstring@a+1),f
  5811  14E9  3000               	movlw	high(01h)
  5812  14EA  07D0               	addwf	(lcdstring@a+1),f
  5813  14EB  2CEC               	goto	l4638
  5814                           	line	94
  5815                           	
  5816  14EC                     l977:	
  5817                           	line	91
  5818                           	
  5819  14EC                     l4638:	
  5820  14EC  1283               	bcf	status, 5	;RP0=0, select bank0
  5821  14ED  1303               	bcf	status, 6	;RP1=0, select bank0
  5822  14EE  0850               	movf	(lcdstring@a+1),w
  5823  14EF  00FF               	movwf	btemp+1
  5824  14F0  084F               	movf	(lcdstring@a),w
  5825  14F1  0084               	movwf	fsr0
  5826  14F2  160A  158A  2000   	fcall	stringtab
              160A  118A         
  5827  14F7  3800               	iorlw	0
  5828  14F8  1D03               	skipz
  5829  14F9  2CFB               	goto	u3711
  5830  14FA  2CFC               	goto	u3710
  5831  14FB                     u3711:
  5832  14FB  2CD3               	goto	l4634
  5833  14FC                     u3710:
  5834  14FC  2CFD               	goto	l980
  5835                           	
  5836  14FD                     l979:	
  5837                           	line	95
  5838                           	
  5839  14FD                     l980:	
  5840  14FD  0008               	return
  5841                           	opt stack 0
  5842                           GLOBAL	__end_of_lcdstring
  5843  14FE                     	__end_of_lcdstring:
  5844 ;; =============== function _lcdstring ends ============
  5845                           
  5846                           	signat	_lcdstring,4216
  5847                           	global	_lcd_init
  5848                           psect	text904,local,class=CODE,delta=2
  5849                           global __ptext904
  5850  096B                     __ptext904:
  5851                           
  5852 ;; *************** function _lcd_init *****************
  5853 ;; Defined at:
  5854 ;;		line 71 in file "F:\PiROOT_Tech\student_projects\AutomaticRationCardSystem\lcd.c"
  5855 ;; Parameters:    Size  Location     Type
  5856 ;;		None
  5857 ;; Auto vars:     Size  Location     Type
  5858 ;;		None
  5859 ;; Return value:  Size  Location     Type
  5860 ;;		None               void
  5861 ;; Registers used:
  5862 ;;		wreg, status,2, status,0, pclath, cstack
  5863 ;; Tracked objects:
  5864 ;;		On entry : 0/0
  5865 ;;		On exit  : 0/0
  5866 ;;		Unchanged: 0/0
  5867 ;; Data sizes:     COMMON   BANK0   BANK1   BANK3   BANK2
  5868 ;;      Params:         0       0       0       0       0
  5869 ;;      Locals:         0       0       0       0       0
  5870 ;;      Temps:          0       2       0       0       0
  5871 ;;      Totals:         0       2       0       0       0
  5872 ;;Total ram usage:        2 bytes
  5873 ;; Hardware stack levels used:    1
  5874 ;; Hardware stack levels required when called:    5
  5875 ;; This function calls:
  5876 ;;		_lcdport
  5877 ;;		_lcdcmd
  5878 ;; This function is called by:
  5879 ;;		_main
  5880 ;; This function uses a non-reentrant model
  5881 ;;
  5882                           psect	text904
  5883                           	file	"F:\PiROOT_Tech\student_projects\AutomaticRationCardSystem\lcd.c"
  5884                           	line	71
  5885                           	global	__size_of_lcd_init
  5886  0064                     	__size_of_lcd_init	equ	__end_of_lcd_init-_lcd_init
  5887                           	
  5888  096B                     _lcd_init:	
  5889                           	opt	stack 2
  5890                           ; Regs used in _lcd_init: [wreg+status,2+status,0+pclath+cstack]
  5891                           	line	72
  5892                           	
  5893  096B                     l4622:	
  5894                           ;lcd.c: 72: lcdport(0x00);
  5895  096B  3000               	movlw	(0)
  5896  096C  160A  118A  2431   	fcall	_lcdport
              120A  158A         
  5897                           	line	73
  5898                           	
  5899  0971                     l4624:	
  5900                           ;lcd.c: 73: _delay((unsigned long)((20)*(20000000/4000.0)));
  5901                           	opt asmopt_off
  5902  0971  3082               movlw	130
  5903  0972  1283               	bcf	status, 5	;RP0=0, select bank0
  5904  0973  1303               	bcf	status, 6	;RP1=0, select bank0
  5905  0974  00D0               movwf	((??_lcd_init+0)+0+1),f
  5906  0975  30DD               	movlw	221
  5907  0976  00CF               movwf	((??_lcd_init+0)+0),f
  5908  0977                     u4007:
  5909  0977  0BCF               	decfsz	((??_lcd_init+0)+0),f
  5910  0978  2977               	goto	u4007
  5911  0979  0BD0               	decfsz	((??_lcd_init+0)+0+1),f
  5912  097A  2977               	goto	u4007
  5913  097B  297C               	nop2
  5914                           opt asmopt_on
  5915                           
  5916                           	line	74
  5917                           	
  5918  097C                     l4626:	
  5919                           ;lcd.c: 74: lcdcmd(0x03);
  5920  097C  3003               	movlw	(03h)
  5921  097D  160A  118A  252C   	fcall	_lcdcmd
              120A  158A         
  5922                           	line	75
  5923                           ;lcd.c: 75: _delay((unsigned long)((5)*(20000000/4000.0)));
  5924                           	opt asmopt_off
  5925  0982  3021               movlw	33
  5926  0983  1283               	bcf	status, 5	;RP0=0, select bank0
  5927  0984  1303               	bcf	status, 6	;RP1=0, select bank0
  5928  0985  00D0               movwf	((??_lcd_init+0)+0+1),f
  5929  0986  3076               	movlw	118
  5930  0987  00CF               movwf	((??_lcd_init+0)+0),f
  5931  0988                     u4017:
  5932  0988  0BCF               	decfsz	((??_lcd_init+0)+0),f
  5933  0989  2988               	goto	u4017
  5934  098A  0BD0               	decfsz	((??_lcd_init+0)+0+1),f
  5935  098B  2988               	goto	u4017
  5936  098C  0064               	clrwdt
  5937                           opt asmopt_on
  5938                           
  5939                           	line	76
  5940                           	
  5941  098D                     l4628:	
  5942                           ;lcd.c: 76: lcdcmd(0x03);
  5943  098D  3003               	movlw	(03h)
  5944  098E  160A  118A  252C   	fcall	_lcdcmd
              120A  158A         
  5945                           	line	77
  5946                           	
  5947  0993                     l4630:	
  5948                           ;lcd.c: 77: _delay((unsigned long)((11)*(20000000/4000.0)));
  5949                           	opt asmopt_off
  5950  0993  3048               movlw	72
  5951  0994  1283               	bcf	status, 5	;RP0=0, select bank0
  5952  0995  1303               	bcf	status, 6	;RP1=0, select bank0
  5953  0996  00D0               movwf	((??_lcd_init+0)+0+1),f
  5954  0997  306C               	movlw	108
  5955  0998  00CF               movwf	((??_lcd_init+0)+0),f
  5956  0999                     u4027:
  5957  0999  0BCF               	decfsz	((??_lcd_init+0)+0),f
  5958  099A  2999               	goto	u4027
  5959  099B  0BD0               	decfsz	((??_lcd_init+0)+0+1),f
  5960  099C  2999               	goto	u4027
  5961  099D  0064               	clrwdt
  5962                           opt asmopt_on
  5963                           
  5964                           	line	78
  5965                           ;lcd.c: 78: lcdcmd(0x03);
  5966  099E  3003               	movlw	(03h)
  5967  099F  160A  118A  252C   	fcall	_lcdcmd
              120A  158A         
  5968                           	line	80
  5969                           ;lcd.c: 80: lcdcmd(0x02);
  5970  09A4  3002               	movlw	(02h)
  5971  09A5  160A  118A  252C   	fcall	_lcdcmd
              120A  158A         
  5972                           	line	81
  5973                           ;lcd.c: 81: lcdcmd(0x02);
  5974  09AA  3002               	movlw	(02h)
  5975  09AB  160A  118A  252C   	fcall	_lcdcmd
              120A  158A         
  5976                           	line	82
  5977                           ;lcd.c: 82: lcdcmd(0x28);
  5978  09B0  3028               	movlw	(028h)
  5979  09B1  160A  118A  252C   	fcall	_lcdcmd
              120A  158A         
  5980                           	line	83
  5981                           ;lcd.c: 83: lcdcmd(0x00);
  5982  09B6  3000               	movlw	(0)
  5983  09B7  160A  118A  252C   	fcall	_lcdcmd
              120A  158A         
  5984                           	line	84
  5985                           ;lcd.c: 84: lcdcmd(0x0C);
  5986  09BC  300C               	movlw	(0Ch)
  5987  09BD  160A  118A  252C   	fcall	_lcdcmd
              120A  158A         
  5988                           	line	85
  5989                           ;lcd.c: 85: lcdcmd(0x00);
  5990  09C2  3000               	movlw	(0)
  5991  09C3  160A  118A  252C   	fcall	_lcdcmd
              120A  158A         
  5992                           	line	86
  5993                           ;lcd.c: 86: lcdcmd(0x06);
  5994  09C8  3006               	movlw	(06h)
  5995  09C9  160A  118A  252C   	fcall	_lcdcmd
              120A  158A         
  5996                           	line	87
  5997                           	
  5998  09CE                     l974:	
  5999  09CE  0008               	return
  6000                           	opt stack 0
  6001                           GLOBAL	__end_of_lcd_init
  6002  09CF                     	__end_of_lcd_init:
  6003 ;; =============== function _lcd_init ends ============
  6004                           
  6005                           	signat	_lcd_init,88
  6006                           	global	_SendStock
  6007                           psect	text905,local,class=CODE,delta=2
  6008                           global __ptext905
  6009  0B9B                     __ptext905:
  6010                           
  6011 ;; *************** function _SendStock *****************
  6012 ;; Defined at:
  6013 ;;		line 191 in file "F:\PiROOT_Tech\student_projects\AutomaticRationCardSystem\Main.c"
  6014 ;; Parameters:    Size  Location     Type
  6015 ;;		None
  6016 ;; Auto vars:     Size  Location     Type
  6017 ;;  d               1    3[BANK0 ] unsigned char 
  6018 ;; Return value:  Size  Location     Type
  6019 ;;		None               void
  6020 ;; Registers used:
  6021 ;;		wreg, fsr0l, fsr0h, status,2, status,0, btemp+1, pclath, cstack
  6022 ;; Tracked objects:
  6023 ;;		On entry : 0/0
  6024 ;;		On exit  : 0/0
  6025 ;;		Unchanged: 0/0
  6026 ;; Data sizes:     COMMON   BANK0   BANK1   BANK3   BANK2
  6027 ;;      Params:         0       0       0       0       0
  6028 ;;      Locals:         0       1       0       0       0
  6029 ;;      Temps:          0       0       0       0       0
  6030 ;;      Totals:         0       1       0       0       0
  6031 ;;Total ram usage:        1 bytes
  6032 ;; Hardware stack levels used:    1
  6033 ;; Hardware stack levels required when called:    5
  6034 ;; This function calls:
  6035 ;;		_usartstring
  6036 ;;		_transmit
  6037 ;;		_receive
  6038 ;; This function is called by:
  6039 ;;		_main
  6040 ;; This function uses a non-reentrant model
  6041 ;;
  6042                           psect	text905
  6043                           	file	"F:\PiROOT_Tech\student_projects\AutomaticRationCardSystem\Main.c"
  6044                           	line	191
  6045                           	global	__size_of_SendStock
  6046  00AC                     	__size_of_SendStock	equ	__end_of_SendStock-_SendStock
  6047                           	
  6048  0B9B                     _SendStock:	
  6049                           	opt	stack 2
  6050                           ; Regs used in _SendStock: [wreg-fsr0h+status,2+status,0+btemp+1+pclath+cstack]
  6051                           	line	193
  6052                           	
  6053  0B9B                     l4592:	
  6054                           ;Main.c: 192: unsigned char d;
  6055                           ;Main.c: 193: PIE1=0X00;
  6056  0B9B  1683               	bsf	status, 5	;RP0=1, select bank1
  6057  0B9C  1303               	bcf	status, 6	;RP1=0, select bank1
  6058  0B9D  018C               	clrf	(140)^080h	;volatile
  6059                           	line	194
  6060                           	
  6061  0B9E                     l4594:	
  6062                           ;Main.c: 194: usartstring("AT+CMGS=\"+919003831304\"");
  6063  0B9E  3078               	movlw	low(STR_27|8000h)
  6064  0B9F  1283               	bcf	status, 5	;RP0=0, select bank0
  6065  0BA0  1303               	bcf	status, 6	;RP1=0, select bank0
  6066  0BA1  00C9               	movwf	(?_usartstring)
  6067  0BA2  3098               	movlw	high(STR_27|8000h)
  6068  0BA3  00CA               	movwf	((?_usartstring))+1
  6069  0BA4  160A  118A  24A6   	fcall	_usartstring
              120A  158A         
  6070                           	line	195
  6071                           	
  6072  0BA9                     l4596:	
  6073                           ;Main.c: 195: transmit(0x0D);
  6074  0BA9  300D               	movlw	(0Dh)
  6075  0BAA  160A  118A  234D   	fcall	_transmit
              120A  158A         
  6076                           	line	196
  6077                           ;Main.c: 196: while((d=receive())!='>');
  6078  0BAF  2BB1               	goto	l4598
  6079                           	
  6080  0BB0                     l1150:	
  6081  0BB0  2BB1               	goto	l4598
  6082                           	
  6083  0BB1                     l1149:	
  6084                           	
  6085  0BB1                     l4598:	
  6086  0BB1  160A  118A  23AC   	fcall	_receive
              120A  158A         
  6087  0BB6  1283               	bcf	status, 5	;RP0=0, select bank0
  6088  0BB7  1303               	bcf	status, 6	;RP1=0, select bank0
  6089  0BB8  00CB               	movwf	(SendStock@d)
  6090  0BB9  3A3E               	xorlw	03Eh
  6091  0BBA  1D03               	skipz
  6092  0BBB  2BBD               	goto	u3691
  6093  0BBC  2BBE               	goto	u3690
  6094  0BBD                     u3691:
  6095  0BBD  2BB1               	goto	l4598
  6096  0BBE                     u3690:
  6097  0BBE  2BBF               	goto	l4600
  6098                           	
  6099  0BBF                     l1151:	
  6100                           	line	197
  6101                           	
  6102  0BBF                     l4600:	
  6103                           ;Main.c: 197: usartstring("Rise Stock:");
  6104  0BBF  3070               	movlw	low(STR_28|8000h)
  6105  0BC0  00C9               	movwf	(?_usartstring)
  6106  0BC1  309A               	movlw	high(STR_28|8000h)
  6107  0BC2  00CA               	movwf	((?_usartstring))+1
  6108  0BC3  160A  118A  24A6   	fcall	_usartstring
              120A  158A         
  6109                           	line	198
  6110                           ;Main.c: 198: usartstring(RiseArray);
  6111  0BC8  303B               	movlw	(_RiseArray&0ffh)
  6112  0BC9  1283               	bcf	status, 5	;RP0=0, select bank0
  6113  0BCA  1303               	bcf	status, 6	;RP1=0, select bank0
  6114  0BCB  00C9               	movwf	(?_usartstring)
  6115  0BCC  3000               	movlw	(0x0/2)
  6116  0BCD  00CA               	movwf	(?_usartstring+1)
  6117  0BCE  160A  118A  24A6   	fcall	_usartstring
              120A  158A         
  6118                           	line	199
  6119                           ;Main.c: 199: usartstring(" Kgs");
  6120  0BD3  30AC               	movlw	low(STR_29|8000h)
  6121  0BD4  1283               	bcf	status, 5	;RP0=0, select bank0
  6122  0BD5  1303               	bcf	status, 6	;RP1=0, select bank0
  6123  0BD6  00C9               	movwf	(?_usartstring)
  6124  0BD7  309A               	movlw	high(STR_29|8000h)
  6125  0BD8  00CA               	movwf	((?_usartstring))+1
  6126  0BD9  160A  118A  24A6   	fcall	_usartstring
              120A  158A         
  6127                           	line	200
  6128                           	
  6129  0BDE                     l4602:	
  6130                           ;Main.c: 200: transmit('\r');
  6131  0BDE  300D               	movlw	(0Dh)
  6132  0BDF  160A  118A  234D   	fcall	_transmit
              120A  158A         
  6133                           	line	201
  6134                           	
  6135  0BE4                     l4604:	
  6136                           ;Main.c: 201: usartstring("Sugar Stock:");
  6137  0BE4  3063               	movlw	low(STR_30|8000h)
  6138  0BE5  1283               	bcf	status, 5	;RP0=0, select bank0
  6139  0BE6  1303               	bcf	status, 6	;RP1=0, select bank0
  6140  0BE7  00C9               	movwf	(?_usartstring)
  6141  0BE8  309A               	movlw	high(STR_30|8000h)
  6142  0BE9  00CA               	movwf	((?_usartstring))+1
  6143  0BEA  160A  118A  24A6   	fcall	_usartstring
              120A  158A         
  6144                           	line	202
  6145                           	
  6146  0BEF                     l4606:	
  6147                           ;Main.c: 202: usartstring(SugarArray);
  6148  0BEF  3044               	movlw	(_SugarArray&0ffh)
  6149  0BF0  1283               	bcf	status, 5	;RP0=0, select bank0
  6150  0BF1  1303               	bcf	status, 6	;RP1=0, select bank0
  6151  0BF2  00C9               	movwf	(?_usartstring)
  6152  0BF3  3000               	movlw	(0x0/2)
  6153  0BF4  00CA               	movwf	(?_usartstring+1)
  6154  0BF5  160A  118A  24A6   	fcall	_usartstring
              120A  158A         
  6155                           	line	203
  6156                           	
  6157  0BFA                     l4608:	
  6158                           ;Main.c: 203: usartstring(" Kgs");
  6159  0BFA  30AC               	movlw	low(STR_31|8000h)
  6160  0BFB  1283               	bcf	status, 5	;RP0=0, select bank0
  6161  0BFC  1303               	bcf	status, 6	;RP1=0, select bank0
  6162  0BFD  00C9               	movwf	(?_usartstring)
  6163  0BFE  309A               	movlw	high(STR_31|8000h)
  6164  0BFF  00CA               	movwf	((?_usartstring))+1
  6165  0C00  160A  118A  24A6   	fcall	_usartstring
              120A  158A         
  6166                           	line	204
  6167                           ;Main.c: 204: transmit('\r');
  6168  0C05  300D               	movlw	(0Dh)
  6169  0C06  160A  118A  234D   	fcall	_transmit
              120A  158A         
  6170                           	line	205
  6171                           	
  6172  0C0B                     l4610:	
  6173                           ;Main.c: 205: usartstring("Kerosene Stock:");
  6174  0C0B  3053               	movlw	low(STR_32|8000h)
  6175  0C0C  1283               	bcf	status, 5	;RP0=0, select bank0
  6176  0C0D  1303               	bcf	status, 6	;RP1=0, select bank0
  6177  0C0E  00C9               	movwf	(?_usartstring)
  6178  0C0F  309A               	movlw	high(STR_32|8000h)
  6179  0C10  00CA               	movwf	((?_usartstring))+1
  6180  0C11  160A  118A  24A6   	fcall	_usartstring
              120A  158A         
  6181                           	line	206
  6182                           	
  6183  0C16                     l4612:	
  6184                           ;Main.c: 206: usartstring(KeroseneArray);
  6185  0C16  3040               	movlw	(_KeroseneArray&0ffh)
  6186  0C17  1283               	bcf	status, 5	;RP0=0, select bank0
  6187  0C18  1303               	bcf	status, 6	;RP1=0, select bank0
  6188  0C19  00C9               	movwf	(?_usartstring)
  6189  0C1A  3000               	movlw	(0x0/2)
  6190  0C1B  00CA               	movwf	(?_usartstring+1)
  6191  0C1C  160A  118A  24A6   	fcall	_usartstring
              120A  158A         
  6192                           	line	207
  6193                           	
  6194  0C21                     l4614:	
  6195                           ;Main.c: 207: usartstring(" Lts");
  6196  0C21  30B1               	movlw	low(STR_33|8000h)
  6197  0C22  1283               	bcf	status, 5	;RP0=0, select bank0
  6198  0C23  1303               	bcf	status, 6	;RP1=0, select bank0
  6199  0C24  00C9               	movwf	(?_usartstring)
  6200  0C25  309A               	movlw	high(STR_33|8000h)
  6201  0C26  00CA               	movwf	((?_usartstring))+1
  6202  0C27  160A  118A  24A6   	fcall	_usartstring
              120A  158A         
  6203                           	line	208
  6204                           	
  6205  0C2C                     l4616:	
  6206                           ;Main.c: 208: transmit(0x1A);
  6207  0C2C  301A               	movlw	(01Ah)
  6208  0C2D  160A  118A  234D   	fcall	_transmit
              120A  158A         
  6209                           	line	209
  6210                           ;Main.c: 209: while((d=receive())!='K');
  6211  0C32  2C34               	goto	l4618
  6212                           	
  6213  0C33                     l1153:	
  6214  0C33  2C34               	goto	l4618
  6215                           	
  6216  0C34                     l1152:	
  6217                           	
  6218  0C34                     l4618:	
  6219  0C34  160A  118A  23AC   	fcall	_receive
              120A  158A         
  6220  0C39  1283               	bcf	status, 5	;RP0=0, select bank0
  6221  0C3A  1303               	bcf	status, 6	;RP1=0, select bank0
  6222  0C3B  00CB               	movwf	(SendStock@d)
  6223  0C3C  3A4B               	xorlw	04Bh
  6224  0C3D  1D03               	skipz
  6225  0C3E  2C40               	goto	u3701
  6226  0C3F  2C41               	goto	u3700
  6227  0C40                     u3701:
  6228  0C40  2C34               	goto	l4618
  6229  0C41                     u3700:
  6230  0C41  2C42               	goto	l4620
  6231                           	
  6232  0C42                     l1154:	
  6233                           	line	210
  6234                           	
  6235  0C42                     l4620:	
  6236                           ;Main.c: 210: PIE1=0X20;
  6237  0C42  3020               	movlw	(020h)
  6238  0C43  1683               	bsf	status, 5	;RP0=1, select bank1
  6239  0C44  1303               	bcf	status, 6	;RP1=0, select bank1
  6240  0C45  008C               	movwf	(140)^080h	;volatile
  6241                           	line	211
  6242                           	
  6243  0C46                     l1155:	
  6244  0C46  0008               	return
  6245                           	opt stack 0
  6246                           GLOBAL	__end_of_SendStock
  6247  0C47                     	__end_of_SendStock:
  6248 ;; =============== function _SendStock ends ============
  6249                           
  6250                           	signat	_SendStock,88
  6251                           	global	_RFID_read
  6252                           psect	text906,local,class=CODE,delta=2
  6253                           global __ptext906
  6254  15C7                     __ptext906:
  6255                           
  6256 ;; *************** function _RFID_read *****************
  6257 ;; Defined at:
  6258 ;;		line 73 in file "F:\PiROOT_Tech\student_projects\AutomaticRationCardSystem\Main.c"
  6259 ;; Parameters:    Size  Location     Type
  6260 ;;		None
  6261 ;; Auto vars:     Size  Location     Type
  6262 ;;  i               2    5[BANK0 ] int 
  6263 ;; Return value:  Size  Location     Type
  6264 ;;		None               void
  6265 ;; Registers used:
  6266 ;;		wreg, fsr0l, fsr0h, status,2, status,0, btemp+1, pclath, cstack
  6267 ;; Tracked objects:
  6268 ;;		On entry : 0/0
  6269 ;;		On exit  : 0/0
  6270 ;;		Unchanged: 0/0
  6271 ;; Data sizes:     COMMON   BANK0   BANK1   BANK3   BANK2
  6272 ;;      Params:         0       0       0       0       0
  6273 ;;      Locals:         0       2       0       0       0
  6274 ;;      Temps:          0       1       0       0       0
  6275 ;;      Totals:         0       3       0       0       0
  6276 ;;Total ram usage:        3 bytes
  6277 ;; Hardware stack levels used:    1
  6278 ;; Hardware stack levels required when called:    4
  6279 ;; This function calls:
  6280 ;;		_softreceive
  6281 ;; This function is called by:
  6282 ;;		_main
  6283 ;; This function uses a non-reentrant model
  6284 ;;
  6285                           psect	text906
  6286                           	file	"F:\PiROOT_Tech\student_projects\AutomaticRationCardSystem\Main.c"
  6287                           	line	73
  6288                           	global	__size_of_RFID_read
  6289  003D                     	__size_of_RFID_read	equ	__end_of_RFID_read-_RFID_read
  6290                           	
  6291  15C7                     _RFID_read:	
  6292                           	opt	stack 3
  6293                           ; Regs used in _RFID_read: [wreg-fsr0h+status,2+status,0+btemp+1+pclath+cstack]
  6294                           	line	74
  6295                           	
  6296  15C7                     l4578:	
  6297                           ;Main.c: 74: if(!rfid_flag)
  6298  15C7  187B               	btfsc	(_rfid_flag/8),(_rfid_flag)&7
  6299  15C8  2DCA               	goto	u3661
  6300  15C9  2DCB               	goto	u3660
  6301  15CA                     u3661:
  6302  15CA  2E03               	goto	l1113
  6303  15CB                     u3660:
  6304                           	line	76
  6305                           	
  6306  15CB                     l4580:	
  6307                           ;Main.c: 75: {
  6308                           ;Main.c: 76: for(int i=0;i<12;i++)
  6309  15CB  3000               	movlw	low(0)
  6310  15CC  1283               	bcf	status, 5	;RP0=0, select bank0
  6311  15CD  1303               	bcf	status, 6	;RP1=0, select bank0
  6312  15CE  00CD               	movwf	(RFID_read@i)
  6313  15CF  3000               	movlw	high(0)
  6314  15D0  00CE               	movwf	((RFID_read@i))+1
  6315                           	
  6316  15D1                     l4582:	
  6317  15D1  084E               	movf	(RFID_read@i+1),w
  6318  15D2  3A80               	xorlw	80h
  6319  15D3  00FF               	movwf	btemp+1
  6320  15D4  3080               	movlw	(high(0Ch))^80h
  6321  15D5  027F               	subwf	btemp+1,w
  6322  15D6  1D03               	skipz
  6323  15D7  2DDA               	goto	u3675
  6324  15D8  300C               	movlw	low(0Ch)
  6325  15D9  024D               	subwf	(RFID_read@i),w
  6326  15DA                     u3675:
  6327                           
  6328  15DA  1C03               	skipc
  6329  15DB  2DDD               	goto	u3671
  6330  15DC  2DDE               	goto	u3670
  6331  15DD                     u3671:
  6332  15DD  2DE0               	goto	l4586
  6333  15DE                     u3670:
  6334  15DE  2E01               	goto	l1112
  6335                           	
  6336  15DF                     l4584:	
  6337  15DF  2E01               	goto	l1112
  6338                           	line	77
  6339                           	
  6340  15E0                     l1111:	
  6341                           	
  6342  15E0                     l4586:	
  6343                           ;Main.c: 77: {card_store[i]=softreceive();}
  6344  15E0  160A  118A  2643   	fcall	_softreceive
              160A  118A         
  6345  15E5  1283               	bcf	status, 5	;RP0=0, select bank0
  6346  15E6  1303               	bcf	status, 6	;RP1=0, select bank0
  6347  15E7  00CC               	movwf	(??_RFID_read+0)+0
  6348  15E8  084D               	movf	(RFID_read@i),w
  6349  15E9  3EC3               	addlw	_card_store&0ffh
  6350  15EA  0084               	movwf	fsr0
  6351  15EB  084C               	movf	(??_RFID_read+0)+0,w
  6352  15EC  1383               	bcf	status, 7	;select IRP bank1
  6353  15ED  0080               	movwf	indf
  6354                           	line	76
  6355                           	
  6356  15EE                     l4588:	
  6357  15EE  3001               	movlw	low(01h)
  6358  15EF  07CD               	addwf	(RFID_read@i),f
  6359  15F0  1803               	skipnc
  6360  15F1  0ACE               	incf	(RFID_read@i+1),f
  6361  15F2  3000               	movlw	high(01h)
  6362  15F3  07CE               	addwf	(RFID_read@i+1),f
  6363                           	
  6364  15F4                     l4590:	
  6365  15F4  084E               	movf	(RFID_read@i+1),w
  6366  15F5  3A80               	xorlw	80h
  6367  15F6  00FF               	movwf	btemp+1
  6368  15F7  3080               	movlw	(high(0Ch))^80h
  6369  15F8  027F               	subwf	btemp+1,w
  6370  15F9  1D03               	skipz
  6371  15FA  2DFD               	goto	u3685
  6372  15FB  300C               	movlw	low(0Ch)
  6373  15FC  024D               	subwf	(RFID_read@i),w
  6374  15FD                     u3685:
  6375                           
  6376  15FD  1C03               	skipc
  6377  15FE  2E00               	goto	u3681
  6378  15FF  2E01               	goto	u3680
  6379  1600                     u3681:
  6380  1600  2DE0               	goto	l4586
  6381  1601                     u3680:
  6382                           	
  6383  1601                     l1112:	
  6384                           	line	78
  6385                           ;Main.c: 78: rfid_flag=1;
  6386  1601  147B               	bsf	(_rfid_flag/8),(_rfid_flag)&7
  6387  1602  2E03               	goto	l1113
  6388                           	line	79
  6389                           	
  6390  1603                     l1110:	
  6391                           	line	80
  6392                           	
  6393  1603                     l1113:	
  6394  1603  0008               	return
  6395                           	opt stack 0
  6396                           GLOBAL	__end_of_RFID_read
  6397  1604                     	__end_of_RFID_read:
  6398 ;; =============== function _RFID_read ends ============
  6399                           
  6400                           	signat	_RFID_read,88
  6401                           	global	_lcddata
  6402                           psect	text907,local,class=CODE,delta=2
  6403                           global __ptext907
  6404  155A                     __ptext907:
  6405                           
  6406 ;; *************** function _lcddata *****************
  6407 ;; Defined at:
  6408 ;;		line 51 in file "F:\PiROOT_Tech\student_projects\AutomaticRationCardSystem\lcd.c"
  6409 ;; Parameters:    Size  Location     Type
  6410 ;;  a               1    wreg     unsigned char 
  6411 ;; Auto vars:     Size  Location     Type
  6412 ;;  a               1    6[BANK0 ] unsigned char 
  6413 ;;  z               1    5[BANK0 ] unsigned char 
  6414 ;;  y               1    4[BANK0 ] unsigned char 
  6415 ;; Return value:  Size  Location     Type
  6416 ;;		None               void
  6417 ;; Registers used:
  6418 ;;		wreg, status,2, status,0, pclath, cstack
  6419 ;; Tracked objects:
  6420 ;;		On entry : 0/0
  6421 ;;		On exit  : 0/0
  6422 ;;		Unchanged: 0/0
  6423 ;; Data sizes:     COMMON   BANK0   BANK1   BANK3   BANK2
  6424 ;;      Params:         0       0       0       0       0
  6425 ;;      Locals:         0       3       0       0       0
  6426 ;;      Temps:          0       2       0       0       0
  6427 ;;      Totals:         0       5       0       0       0
  6428 ;;Total ram usage:        5 bytes
  6429 ;; Hardware stack levels used:    1
  6430 ;; Hardware stack levels required when called:    4
  6431 ;; This function calls:
  6432 ;;		_lcdport
  6433 ;;		_enable
  6434 ;; This function is called by:
  6435 ;;		_lcdstring
  6436 ;;		_DisplayAmnt
  6437 ;;		_DisplaySugar
  6438 ;;		_DisplayRise
  6439 ;;		_DisplayKerosene
  6440 ;; This function uses a non-reentrant model
  6441 ;;
  6442                           psect	text907
  6443                           	file	"F:\PiROOT_Tech\student_projects\AutomaticRationCardSystem\lcd.c"
  6444                           	line	51
  6445                           	global	__size_of_lcddata
  6446  0032                     	__size_of_lcddata	equ	__end_of_lcddata-_lcddata
  6447                           	
  6448  155A                     _lcddata:	
  6449                           	opt	stack 1
  6450                           ; Regs used in _lcddata: [wreg+status,2+status,0+pclath+cstack]
  6451                           ;lcddata@a stored from wreg
  6452                           	line	53
  6453  155A  1283               	bcf	status, 5	;RP0=0, select bank0
  6454  155B  1303               	bcf	status, 6	;RP1=0, select bank0
  6455  155C  00CE               	movwf	(lcddata@a)
  6456                           	
  6457  155D                     l4562:	
  6458                           ;lcd.c: 52: unsigned char y,z;
  6459                           ;lcd.c: 53: z=a>>4&0x0F;
  6460  155D  084E               	movf	(lcddata@a),w
  6461  155E  00CA               	movwf	(??_lcddata+0)+0
  6462  155F  3004               	movlw	04h
  6463  1560                     u3655:
  6464  1560  1003               	clrc
  6465  1561  0CCA               	rrf	(??_lcddata+0)+0,f
  6466  1562  3EFF               	addlw	-1
  6467  1563  1D03               	skipz
  6468  1564  2D60               	goto	u3655
  6469  1565  084A               	movf	0+(??_lcddata+0)+0,w
  6470  1566  390F               	andlw	0Fh
  6471  1567  00CB               	movwf	(??_lcddata+1)+0
  6472  1568  084B               	movf	(??_lcddata+1)+0,w
  6473  1569  00CD               	movwf	(lcddata@z)
  6474                           	line	54
  6475                           	
  6476  156A                     l4564:	
  6477                           ;lcd.c: 54: y=a&0x0F;
  6478  156A  084E               	movf	(lcddata@a),w
  6479  156B  390F               	andlw	0Fh
  6480  156C  00CA               	movwf	(??_lcddata+0)+0
  6481  156D  084A               	movf	(??_lcddata+0)+0,w
  6482  156E  00CC               	movwf	(lcddata@y)
  6483                           	line	55
  6484                           	
  6485  156F                     l4566:	
  6486                           ;lcd.c: 55: RD2=1;
  6487  156F  1508               	bsf	(66/8),(66)&7
  6488                           	line	56
  6489                           	
  6490  1570                     l4568:	
  6491                           ;lcd.c: 56: lcdport(z);
  6492  1570  084D               	movf	(lcddata@z),w
  6493  1571  160A  118A  2431   	fcall	_lcdport
              160A  118A         
  6494                           	line	57
  6495                           	
  6496  1576                     l4570:	
  6497                           ;lcd.c: 57: enable();
  6498  1576  160A  118A  2368   	fcall	_enable
              160A  118A         
  6499                           	line	58
  6500                           	
  6501  157B                     l4572:	
  6502                           ;lcd.c: 58: lcdport(y);
  6503  157B  1283               	bcf	status, 5	;RP0=0, select bank0
  6504  157C  1303               	bcf	status, 6	;RP1=0, select bank0
  6505  157D  084C               	movf	(lcddata@y),w
  6506  157E  160A  118A  2431   	fcall	_lcdport
              160A  118A         
  6507                           	line	59
  6508                           	
  6509  1583                     l4574:	
  6510                           ;lcd.c: 59: enable();
  6511  1583  160A  118A  2368   	fcall	_enable
              160A  118A         
  6512                           	line	60
  6513                           	
  6514  1588                     l4576:	
  6515                           ;lcd.c: 60: RD2 = 0;
  6516  1588  1283               	bcf	status, 5	;RP0=0, select bank0
  6517  1589  1303               	bcf	status, 6	;RP1=0, select bank0
  6518  158A  1108               	bcf	(66/8),(66)&7
  6519                           	line	61
  6520                           	
  6521  158B                     l968:	
  6522  158B  0008               	return
  6523                           	opt stack 0
  6524                           GLOBAL	__end_of_lcddata
  6525  158C                     	__end_of_lcddata:
  6526 ;; =============== function _lcddata ends ============
  6527                           
  6528                           	signat	_lcddata,4216
  6529                           	global	_lcdcmd
  6530                           psect	text908,local,class=CODE,delta=2
  6531                           global __ptext908
  6532  152C                     __ptext908:
  6533                           
  6534 ;; *************** function _lcdcmd *****************
  6535 ;; Defined at:
  6536 ;;		line 39 in file "F:\PiROOT_Tech\student_projects\AutomaticRationCardSystem\lcd.c"
  6537 ;; Parameters:    Size  Location     Type
  6538 ;;  a               1    wreg     unsigned char 
  6539 ;; Auto vars:     Size  Location     Type
  6540 ;;  a               1    6[BANK0 ] unsigned char 
  6541 ;;  z               1    5[BANK0 ] unsigned char 
  6542 ;;  y               1    4[BANK0 ] unsigned char 
  6543 ;; Return value:  Size  Location     Type
  6544 ;;		None               void
  6545 ;; Registers used:
  6546 ;;		wreg, status,2, status,0, pclath, cstack
  6547 ;; Tracked objects:
  6548 ;;		On entry : 0/0
  6549 ;;		On exit  : 0/0
  6550 ;;		Unchanged: 0/0
  6551 ;; Data sizes:     COMMON   BANK0   BANK1   BANK3   BANK2
  6552 ;;      Params:         0       0       0       0       0
  6553 ;;      Locals:         0       3       0       0       0
  6554 ;;      Temps:          0       2       0       0       0
  6555 ;;      Totals:         0       5       0       0       0
  6556 ;;Total ram usage:        5 bytes
  6557 ;; Hardware stack levels used:    1
  6558 ;; Hardware stack levels required when called:    4
  6559 ;; This function calls:
  6560 ;;		_lcdport
  6561 ;;		_enable
  6562 ;; This function is called by:
  6563 ;;		_lcd_init
  6564 ;;		_gsm_init
  6565 ;;		_DisplayAmnt
  6566 ;;		_DisplayStock
  6567 ;;		_DisplaySugar
  6568 ;;		_DisplayRise
  6569 ;;		_DisplayKerosene
  6570 ;;		_startup
  6571 ;;		_main
  6572 ;;		_lcdclear
  6573 ;;		_Lcd_Shift_Right
  6574 ;;		_Lcd_Shift_Left
  6575 ;; This function uses a non-reentrant model
  6576 ;;
  6577                           psect	text908
  6578                           	file	"F:\PiROOT_Tech\student_projects\AutomaticRationCardSystem\lcd.c"
  6579                           	line	39
  6580                           	global	__size_of_lcdcmd
  6581  002E                     	__size_of_lcdcmd	equ	__end_of_lcdcmd-_lcdcmd
  6582                           	
  6583  152C                     _lcdcmd:	
  6584                           	opt	stack 1
  6585                           ; Regs used in _lcdcmd: [wreg+status,2+status,0+pclath+cstack]
  6586                           ;lcdcmd@a stored from wreg
  6587                           	line	41
  6588  152C  1283               	bcf	status, 5	;RP0=0, select bank0
  6589  152D  1303               	bcf	status, 6	;RP1=0, select bank0
  6590  152E  00CE               	movwf	(lcdcmd@a)
  6591                           	
  6592  152F                     l4550:	
  6593                           ;lcd.c: 40: unsigned char y,z;
  6594                           ;lcd.c: 41: z=a>>4&0x0F;
  6595  152F  084E               	movf	(lcdcmd@a),w
  6596  1530  00CA               	movwf	(??_lcdcmd+0)+0
  6597  1531  3004               	movlw	04h
  6598  1532                     u3645:
  6599  1532  1003               	clrc
  6600  1533  0CCA               	rrf	(??_lcdcmd+0)+0,f
  6601  1534  3EFF               	addlw	-1
  6602  1535  1D03               	skipz
  6603  1536  2D32               	goto	u3645
  6604  1537  084A               	movf	0+(??_lcdcmd+0)+0,w
  6605  1538  390F               	andlw	0Fh
  6606  1539  00CB               	movwf	(??_lcdcmd+1)+0
  6607  153A  084B               	movf	(??_lcdcmd+1)+0,w
  6608  153B  00CD               	movwf	(lcdcmd@z)
  6609                           	line	42
  6610                           	
  6611  153C                     l4552:	
  6612                           ;lcd.c: 42: y=a&0x0F;
  6613  153C  084E               	movf	(lcdcmd@a),w
  6614  153D  390F               	andlw	0Fh
  6615  153E  00CA               	movwf	(??_lcdcmd+0)+0
  6616  153F  084A               	movf	(??_lcdcmd+0)+0,w
  6617  1540  00CC               	movwf	(lcdcmd@y)
  6618                           	line	44
  6619                           	
  6620  1541                     l4554:	
  6621                           ;lcd.c: 44: lcdport(z);
  6622  1541  084D               	movf	(lcdcmd@z),w
  6623  1542  160A  118A  2431   	fcall	_lcdport
              160A  118A         
  6624                           	line	45
  6625                           	
  6626  1547                     l4556:	
  6627                           ;lcd.c: 45: enable();
  6628  1547  160A  118A  2368   	fcall	_enable
              160A  118A         
  6629                           	line	46
  6630                           	
  6631  154C                     l4558:	
  6632                           ;lcd.c: 46: lcdport(y);
  6633  154C  1283               	bcf	status, 5	;RP0=0, select bank0
  6634  154D  1303               	bcf	status, 6	;RP1=0, select bank0
  6635  154E  084C               	movf	(lcdcmd@y),w
  6636  154F  160A  118A  2431   	fcall	_lcdport
              160A  118A         
  6637                           	line	47
  6638                           	
  6639  1554                     l4560:	
  6640                           ;lcd.c: 47: enable();
  6641  1554  160A  118A  2368   	fcall	_enable
              160A  118A         
  6642                           	line	48
  6643                           	
  6644  1559                     l965:	
  6645  1559  0008               	return
  6646                           	opt stack 0
  6647                           GLOBAL	__end_of_lcdcmd
  6648  155A                     	__end_of_lcdcmd:
  6649 ;; =============== function _lcdcmd ends ============
  6650                           
  6651                           	signat	_lcdcmd,4216
  6652                           	global	_LoadStockToArray
  6653                           psect	text909,local,class=CODE,delta=2
  6654                           global __ptext909
  6655  0E12                     __ptext909:
  6656                           
  6657 ;; *************** function _LoadStockToArray *****************
  6658 ;; Defined at:
  6659 ;;		line 177 in file "F:\PiROOT_Tech\student_projects\AutomaticRationCardSystem\Main.c"
  6660 ;; Parameters:    Size  Location     Type
  6661 ;;		None
  6662 ;; Auto vars:     Size  Location     Type
  6663 ;;		None
  6664 ;; Return value:  Size  Location     Type
  6665 ;;		None               void
  6666 ;; Registers used:
  6667 ;;		wreg, fsr0l, fsr0h, status,2, status,0, btemp+1, pclath, cstack
  6668 ;; Tracked objects:
  6669 ;;		On entry : 0/0
  6670 ;;		On exit  : 0/0
  6671 ;;		Unchanged: 0/0
  6672 ;; Data sizes:     COMMON   BANK0   BANK1   BANK3   BANK2
  6673 ;;      Params:         0       0       0       0       0
  6674 ;;      Locals:         0       2       0       0       0
  6675 ;;      Temps:          0       1       0       0       0
  6676 ;;      Totals:         0       3       0       0       0
  6677 ;;Total ram usage:        3 bytes
  6678 ;; Hardware stack levels used:    1
  6679 ;; Hardware stack levels required when called:    4
  6680 ;; This function calls:
  6681 ;;		___lwdiv
  6682 ;;		___lwmod
  6683 ;; This function is called by:
  6684 ;;		_main
  6685 ;; This function uses a non-reentrant model
  6686 ;;
  6687                           psect	text909
  6688                           	file	"F:\PiROOT_Tech\student_projects\AutomaticRationCardSystem\Main.c"
  6689                           	line	177
  6690                           	global	__size_of_LoadStockToArray
  6691  01EE                     	__size_of_LoadStockToArray	equ	__end_of_LoadStockToArray-_LoadStockToArray
  6692                           	
  6693  0E12                     _LoadStockToArray:	
  6694                           	opt	stack 3
  6695                           ; Regs used in _LoadStockToArray: [wreg-fsr0h+status,2+status,0+btemp+1+pclath+cstack]
  6696                           	line	178
  6697                           	
  6698  0E12                     l4532:	
  6699                           ;Main.c: 178: RiseArray[0] = digit[RiseStock/1000];
  6700  0E12  30E8               	movlw	low(03E8h)
  6701  0E13  1283               	bcf	status, 5	;RP0=0, select bank0
  6702  0E14  1303               	bcf	status, 6	;RP1=0, select bank0
  6703  0E15  00CE               	movwf	(?___lwdiv)
  6704  0E16  3003               	movlw	high(03E8h)
  6705  0E17  00CF               	movwf	((?___lwdiv))+1
  6706  0E18  0823               	movf	(_RiseStock+1),w
  6707  0E19  01D1               	clrf	1+(?___lwdiv)+02h
  6708  0E1A  07D1               	addwf	1+(?___lwdiv)+02h
  6709  0E1B  0822               	movf	(_RiseStock),w
  6710  0E1C  01D0               	clrf	0+(?___lwdiv)+02h
  6711  0E1D  07D0               	addwf	0+(?___lwdiv)+02h
  6712                           
  6713  0E1E  160A  118A  275A   	fcall	___lwdiv
              120A  158A         
  6714  0E23  1283               	bcf	status, 5	;RP0=0, select bank0
  6715  0E24  1303               	bcf	status, 6	;RP1=0, select bank0
  6716  0E25  084E               	movf	(0+(?___lwdiv)),w
  6717  0E26  3E1D               	addlw	low(_digit|8000h)
  6718  0E27  0084               	movwf	fsr0
  6719  0E28  3098               	movlw	high(_digit|8000h)
  6720  0E29  1803               	skipnc
  6721  0E2A  3E01               	addlw	1
  6722  0E2B  00FF               	movwf	btemp+1
  6723  0E2C  160A  158A  2000   	fcall	stringtab
              120A  158A         
  6724  0E31  00D6               	movwf	(??_LoadStockToArray+0)+0
  6725  0E32  0856               	movf	(??_LoadStockToArray+0)+0,w
  6726  0E33  00BB               	movwf	(_RiseArray)
  6727                           	line	179
  6728                           ;Main.c: 179: RiseArray[1] = digit[RiseStock%1000/100];
  6729  0E34  3064               	movlw	low(064h)
  6730  0E35  00CE               	movwf	(?___lwdiv)
  6731  0E36  3000               	movlw	high(064h)
  6732  0E37  00CF               	movwf	((?___lwdiv))+1
  6733  0E38  0823               	movf	(_RiseStock+1),w
  6734  0E39  01CB               	clrf	1+(?___lwmod)+02h
  6735  0E3A  07CB               	addwf	1+(?___lwmod)+02h
  6736  0E3B  0822               	movf	(_RiseStock),w
  6737  0E3C  01CA               	clrf	0+(?___lwmod)+02h
  6738  0E3D  07CA               	addwf	0+(?___lwmod)+02h
  6739                           
  6740  0E3E  30E8               	movlw	low(03E8h)
  6741  0E3F  00C8               	movwf	(?___lwmod)
  6742  0E40  3003               	movlw	high(03E8h)
  6743  0E41  00C9               	movwf	((?___lwmod))+1
  6744  0E42  160A  118A  26CD   	fcall	___lwmod
              120A  158A         
  6745  0E47  1283               	bcf	status, 5	;RP0=0, select bank0
  6746  0E48  1303               	bcf	status, 6	;RP1=0, select bank0
  6747  0E49  0849               	movf	(1+(?___lwmod)),w
  6748  0E4A  01D1               	clrf	1+(?___lwdiv)+02h
  6749  0E4B  07D1               	addwf	1+(?___lwdiv)+02h
  6750  0E4C  0848               	movf	(0+(?___lwmod)),w
  6751  0E4D  01D0               	clrf	0+(?___lwdiv)+02h
  6752  0E4E  07D0               	addwf	0+(?___lwdiv)+02h
  6753                           
  6754  0E4F  160A  118A  275A   	fcall	___lwdiv
              120A  158A         
  6755  0E54  1283               	bcf	status, 5	;RP0=0, select bank0
  6756  0E55  1303               	bcf	status, 6	;RP1=0, select bank0
  6757  0E56  084E               	movf	(0+(?___lwdiv)),w
  6758  0E57  3E1D               	addlw	low(_digit|8000h)
  6759  0E58  0084               	movwf	fsr0
  6760  0E59  3098               	movlw	high(_digit|8000h)
  6761  0E5A  1803               	skipnc
  6762  0E5B  3E01               	addlw	1
  6763  0E5C  00FF               	movwf	btemp+1
  6764  0E5D  160A  158A  2000   	fcall	stringtab
              120A  158A         
  6765  0E62  00D6               	movwf	(??_LoadStockToArray+0)+0
  6766  0E63  0856               	movf	(??_LoadStockToArray+0)+0,w
  6767  0E64  00BC               	movwf	0+(_RiseArray)+01h
  6768                           	line	180
  6769                           ;Main.c: 180: RiseArray[2] = digit[RiseStock%1000%100/10];
  6770  0E65  300A               	movlw	low(0Ah)
  6771  0E66  00CE               	movwf	(?___lwdiv)
  6772  0E67  3000               	movlw	high(0Ah)
  6773  0E68  00CF               	movwf	((?___lwdiv))+1
  6774  0E69  0823               	movf	(_RiseStock+1),w
  6775  0E6A  01CB               	clrf	1+(?___lwmod)+02h
  6776  0E6B  07CB               	addwf	1+(?___lwmod)+02h
  6777  0E6C  0822               	movf	(_RiseStock),w
  6778  0E6D  01CA               	clrf	0+(?___lwmod)+02h
  6779  0E6E  07CA               	addwf	0+(?___lwmod)+02h
  6780                           
  6781  0E6F  30E8               	movlw	low(03E8h)
  6782  0E70  00C8               	movwf	(?___lwmod)
  6783  0E71  3003               	movlw	high(03E8h)
  6784  0E72  00C9               	movwf	((?___lwmod))+1
  6785  0E73  160A  118A  26CD   	fcall	___lwmod
              120A  158A         
  6786  0E78  1283               	bcf	status, 5	;RP0=0, select bank0
  6787  0E79  1303               	bcf	status, 6	;RP1=0, select bank0
  6788  0E7A  0849               	movf	(1+(?___lwmod)),w
  6789  0E7B  01CB               	clrf	1+(?___lwmod)+02h
  6790  0E7C  07CB               	addwf	1+(?___lwmod)+02h
  6791  0E7D  0848               	movf	(0+(?___lwmod)),w
  6792  0E7E  01CA               	clrf	0+(?___lwmod)+02h
  6793  0E7F  07CA               	addwf	0+(?___lwmod)+02h
  6794                           
  6795  0E80  3064               	movlw	low(064h)
  6796  0E81  00C8               	movwf	(?___lwmod)
  6797  0E82  3000               	movlw	high(064h)
  6798  0E83  00C9               	movwf	((?___lwmod))+1
  6799  0E84  160A  118A  26CD   	fcall	___lwmod
              120A  158A         
  6800  0E89  1283               	bcf	status, 5	;RP0=0, select bank0
  6801  0E8A  1303               	bcf	status, 6	;RP1=0, select bank0
  6802  0E8B  0849               	movf	(1+(?___lwmod)),w
  6803  0E8C  01D1               	clrf	1+(?___lwdiv)+02h
  6804  0E8D  07D1               	addwf	1+(?___lwdiv)+02h
  6805  0E8E  0848               	movf	(0+(?___lwmod)),w
  6806  0E8F  01D0               	clrf	0+(?___lwdiv)+02h
  6807  0E90  07D0               	addwf	0+(?___lwdiv)+02h
  6808                           
  6809  0E91  160A  118A  275A   	fcall	___lwdiv
              120A  158A         
  6810  0E96  1283               	bcf	status, 5	;RP0=0, select bank0
  6811  0E97  1303               	bcf	status, 6	;RP1=0, select bank0
  6812  0E98  084E               	movf	(0+(?___lwdiv)),w
  6813  0E99  3E1D               	addlw	low(_digit|8000h)
  6814  0E9A  0084               	movwf	fsr0
  6815  0E9B  3098               	movlw	high(_digit|8000h)
  6816  0E9C  1803               	skipnc
  6817  0E9D  3E01               	addlw	1
  6818  0E9E  00FF               	movwf	btemp+1
  6819  0E9F  160A  158A  2000   	fcall	stringtab
              120A  158A         
  6820  0EA4  00D6               	movwf	(??_LoadStockToArray+0)+0
  6821  0EA5  0856               	movf	(??_LoadStockToArray+0)+0,w
  6822  0EA6  00BD               	movwf	0+(_RiseArray)+02h
  6823                           	line	181
  6824                           	
  6825  0EA7                     l4534:	
  6826                           ;Main.c: 181: RiseArray[3] = digit[RiseStock%1000%100%10];
  6827  0EA7  0823               	movf	(_RiseStock+1),w
  6828  0EA8  01CB               	clrf	1+(?___lwmod)+02h
  6829  0EA9  07CB               	addwf	1+(?___lwmod)+02h
  6830  0EAA  0822               	movf	(_RiseStock),w
  6831  0EAB  01CA               	clrf	0+(?___lwmod)+02h
  6832  0EAC  07CA               	addwf	0+(?___lwmod)+02h
  6833                           
  6834  0EAD  30E8               	movlw	low(03E8h)
  6835  0EAE  00C8               	movwf	(?___lwmod)
  6836  0EAF  3003               	movlw	high(03E8h)
  6837  0EB0  00C9               	movwf	((?___lwmod))+1
  6838  0EB1  160A  118A  26CD   	fcall	___lwmod
              120A  158A         
  6839  0EB6  1283               	bcf	status, 5	;RP0=0, select bank0
  6840  0EB7  1303               	bcf	status, 6	;RP1=0, select bank0
  6841  0EB8  0849               	movf	(1+(?___lwmod)),w
  6842  0EB9  01CB               	clrf	1+(?___lwmod)+02h
  6843  0EBA  07CB               	addwf	1+(?___lwmod)+02h
  6844  0EBB  0848               	movf	(0+(?___lwmod)),w
  6845  0EBC  01CA               	clrf	0+(?___lwmod)+02h
  6846  0EBD  07CA               	addwf	0+(?___lwmod)+02h
  6847                           
  6848  0EBE  3064               	movlw	low(064h)
  6849  0EBF  00C8               	movwf	(?___lwmod)
  6850  0EC0  3000               	movlw	high(064h)
  6851  0EC1  00C9               	movwf	((?___lwmod))+1
  6852  0EC2  160A  118A  26CD   	fcall	___lwmod
              120A  158A         
  6853  0EC7  1283               	bcf	status, 5	;RP0=0, select bank0
  6854  0EC8  1303               	bcf	status, 6	;RP1=0, select bank0
  6855  0EC9  0849               	movf	(1+(?___lwmod)),w
  6856  0ECA  01D8               	clrf	(_LoadStockToArray$1138+1)
  6857  0ECB  07D8               	addwf	(_LoadStockToArray$1138+1)
  6858  0ECC  0848               	movf	(0+(?___lwmod)),w
  6859  0ECD  01D7               	clrf	(_LoadStockToArray$1138)
  6860  0ECE  07D7               	addwf	(_LoadStockToArray$1138)
  6861                           
  6862                           	
  6863  0ECF                     l4536:	
  6864                           ;Main.c: 181: RiseArray[3] = digit[RiseStock%1000%100%10];
  6865  0ECF  300A               	movlw	low(0Ah)
  6866  0ED0  00C8               	movwf	(?___lwmod)
  6867  0ED1  3000               	movlw	high(0Ah)
  6868  0ED2  00C9               	movwf	((?___lwmod))+1
  6869  0ED3  0858               	movf	(_LoadStockToArray$1138+1),w
  6870  0ED4  01CB               	clrf	1+(?___lwmod)+02h
  6871  0ED5  07CB               	addwf	1+(?___lwmod)+02h
  6872  0ED6  0857               	movf	(_LoadStockToArray$1138),w
  6873  0ED7  01CA               	clrf	0+(?___lwmod)+02h
  6874  0ED8  07CA               	addwf	0+(?___lwmod)+02h
  6875                           
  6876  0ED9  160A  118A  26CD   	fcall	___lwmod
              120A  158A         
  6877  0EDE  1283               	bcf	status, 5	;RP0=0, select bank0
  6878  0EDF  1303               	bcf	status, 6	;RP1=0, select bank0
  6879  0EE0  0848               	movf	(0+(?___lwmod)),w
  6880  0EE1  3E1D               	addlw	low(_digit|8000h)
  6881  0EE2  0084               	movwf	fsr0
  6882  0EE3  3098               	movlw	high(_digit|8000h)
  6883  0EE4  1803               	skipnc
  6884  0EE5  3E01               	addlw	1
  6885  0EE6  00FF               	movwf	btemp+1
  6886  0EE7  160A  158A  2000   	fcall	stringtab
              120A  158A         
  6887  0EEC  00D6               	movwf	(??_LoadStockToArray+0)+0
  6888  0EED  0856               	movf	(??_LoadStockToArray+0)+0,w
  6889  0EEE  00BE               	movwf	0+(_RiseArray)+03h
  6890                           	line	182
  6891                           	
  6892  0EEF                     l4538:	
  6893                           ;Main.c: 182: SugarArray[0] = digit[SugarStock/100];
  6894  0EEF  3064               	movlw	low(064h)
  6895  0EF0  00CE               	movwf	(?___lwdiv)
  6896  0EF1  3000               	movlw	high(064h)
  6897  0EF2  00CF               	movwf	((?___lwdiv))+1
  6898  0EF3  0825               	movf	(_SugarStock+1),w
  6899  0EF4  01D1               	clrf	1+(?___lwdiv)+02h
  6900  0EF5  07D1               	addwf	1+(?___lwdiv)+02h
  6901  0EF6  0824               	movf	(_SugarStock),w
  6902  0EF7  01D0               	clrf	0+(?___lwdiv)+02h
  6903  0EF8  07D0               	addwf	0+(?___lwdiv)+02h
  6904                           
  6905  0EF9  160A  118A  275A   	fcall	___lwdiv
              120A  158A         
  6906  0EFE  1283               	bcf	status, 5	;RP0=0, select bank0
  6907  0EFF  1303               	bcf	status, 6	;RP1=0, select bank0
  6908  0F00  084E               	movf	(0+(?___lwdiv)),w
  6909  0F01  3E1D               	addlw	low(_digit|8000h)
  6910  0F02  0084               	movwf	fsr0
  6911  0F03  3098               	movlw	high(_digit|8000h)
  6912  0F04  1803               	skipnc
  6913  0F05  3E01               	addlw	1
  6914  0F06  00FF               	movwf	btemp+1
  6915  0F07  160A  158A  2000   	fcall	stringtab
              120A  158A         
  6916  0F0C  00D6               	movwf	(??_LoadStockToArray+0)+0
  6917  0F0D  0856               	movf	(??_LoadStockToArray+0)+0,w
  6918  0F0E  00C4               	movwf	(_SugarArray)
  6919                           	line	183
  6920                           	
  6921  0F0F                     l4540:	
  6922                           ;Main.c: 183: SugarArray[1] = digit[SugarStock%100/10];
  6923  0F0F  300A               	movlw	low(0Ah)
  6924  0F10  00CE               	movwf	(?___lwdiv)
  6925  0F11  3000               	movlw	high(0Ah)
  6926  0F12  00CF               	movwf	((?___lwdiv))+1
  6927  0F13  0825               	movf	(_SugarStock+1),w
  6928  0F14  01CB               	clrf	1+(?___lwmod)+02h
  6929  0F15  07CB               	addwf	1+(?___lwmod)+02h
  6930  0F16  0824               	movf	(_SugarStock),w
  6931  0F17  01CA               	clrf	0+(?___lwmod)+02h
  6932  0F18  07CA               	addwf	0+(?___lwmod)+02h
  6933                           
  6934  0F19  3064               	movlw	low(064h)
  6935  0F1A  00C8               	movwf	(?___lwmod)
  6936  0F1B  3000               	movlw	high(064h)
  6937  0F1C  00C9               	movwf	((?___lwmod))+1
  6938  0F1D  160A  118A  26CD   	fcall	___lwmod
              120A  158A         
  6939  0F22  1283               	bcf	status, 5	;RP0=0, select bank0
  6940  0F23  1303               	bcf	status, 6	;RP1=0, select bank0
  6941  0F24  0849               	movf	(1+(?___lwmod)),w
  6942  0F25  01D1               	clrf	1+(?___lwdiv)+02h
  6943  0F26  07D1               	addwf	1+(?___lwdiv)+02h
  6944  0F27  0848               	movf	(0+(?___lwmod)),w
  6945  0F28  01D0               	clrf	0+(?___lwdiv)+02h
  6946  0F29  07D0               	addwf	0+(?___lwdiv)+02h
  6947                           
  6948  0F2A  160A  118A  275A   	fcall	___lwdiv
              120A  158A         
  6949  0F2F  1283               	bcf	status, 5	;RP0=0, select bank0
  6950  0F30  1303               	bcf	status, 6	;RP1=0, select bank0
  6951  0F31  084E               	movf	(0+(?___lwdiv)),w
  6952  0F32  3E1D               	addlw	low(_digit|8000h)
  6953  0F33  0084               	movwf	fsr0
  6954  0F34  3098               	movlw	high(_digit|8000h)
  6955  0F35  1803               	skipnc
  6956  0F36  3E01               	addlw	1
  6957  0F37  00FF               	movwf	btemp+1
  6958  0F38  160A  158A  2000   	fcall	stringtab
              120A  158A         
  6959  0F3D  00D6               	movwf	(??_LoadStockToArray+0)+0
  6960  0F3E  0856               	movf	(??_LoadStockToArray+0)+0,w
  6961  0F3F  00C5               	movwf	0+(_SugarArray)+01h
  6962                           	line	184
  6963                           ;Main.c: 184: SugarArray[2] = digit[SugarStock%100%10];
  6964  0F40  0825               	movf	(_SugarStock+1),w
  6965  0F41  01CB               	clrf	1+(?___lwmod)+02h
  6966  0F42  07CB               	addwf	1+(?___lwmod)+02h
  6967  0F43  0824               	movf	(_SugarStock),w
  6968  0F44  01CA               	clrf	0+(?___lwmod)+02h
  6969  0F45  07CA               	addwf	0+(?___lwmod)+02h
  6970                           
  6971  0F46  3064               	movlw	low(064h)
  6972  0F47  00C8               	movwf	(?___lwmod)
  6973  0F48  3000               	movlw	high(064h)
  6974  0F49  00C9               	movwf	((?___lwmod))+1
  6975  0F4A  160A  118A  26CD   	fcall	___lwmod
              120A  158A         
  6976  0F4F  1283               	bcf	status, 5	;RP0=0, select bank0
  6977  0F50  1303               	bcf	status, 6	;RP1=0, select bank0
  6978  0F51  0849               	movf	(1+(?___lwmod)),w
  6979  0F52  01D8               	clrf	(_LoadStockToArray$1138+1)
  6980  0F53  07D8               	addwf	(_LoadStockToArray$1138+1)
  6981  0F54  0848               	movf	(0+(?___lwmod)),w
  6982  0F55  01D7               	clrf	(_LoadStockToArray$1138)
  6983  0F56  07D7               	addwf	(_LoadStockToArray$1138)
  6984                           
  6985                           	
  6986  0F57                     l4542:	
  6987                           ;Main.c: 184: SugarArray[2] = digit[SugarStock%100%10];
  6988  0F57  300A               	movlw	low(0Ah)
  6989  0F58  00C8               	movwf	(?___lwmod)
  6990  0F59  3000               	movlw	high(0Ah)
  6991  0F5A  00C9               	movwf	((?___lwmod))+1
  6992  0F5B  0858               	movf	(_LoadStockToArray$1138+1),w
  6993  0F5C  01CB               	clrf	1+(?___lwmod)+02h
  6994  0F5D  07CB               	addwf	1+(?___lwmod)+02h
  6995  0F5E  0857               	movf	(_LoadStockToArray$1138),w
  6996  0F5F  01CA               	clrf	0+(?___lwmod)+02h
  6997  0F60  07CA               	addwf	0+(?___lwmod)+02h
  6998                           
  6999  0F61  160A  118A  26CD   	fcall	___lwmod
              120A  158A         
  7000  0F66  1283               	bcf	status, 5	;RP0=0, select bank0
  7001  0F67  1303               	bcf	status, 6	;RP1=0, select bank0
  7002  0F68  0848               	movf	(0+(?___lwmod)),w
  7003  0F69  3E1D               	addlw	low(_digit|8000h)
  7004  0F6A  0084               	movwf	fsr0
  7005  0F6B  3098               	movlw	high(_digit|8000h)
  7006  0F6C  1803               	skipnc
  7007  0F6D  3E01               	addlw	1
  7008  0F6E  00FF               	movwf	btemp+1
  7009  0F6F  160A  158A  2000   	fcall	stringtab
              120A  158A         
  7010  0F74  00D6               	movwf	(??_LoadStockToArray+0)+0
  7011  0F75  0856               	movf	(??_LoadStockToArray+0)+0,w
  7012  0F76  00C6               	movwf	0+(_SugarArray)+02h
  7013                           	line	185
  7014                           	
  7015  0F77                     l4544:	
  7016                           ;Main.c: 185: KeroseneArray[0] = digit[KeroseneStock/100];
  7017  0F77  3064               	movlw	low(064h)
  7018  0F78  00CE               	movwf	(?___lwdiv)
  7019  0F79  3000               	movlw	high(064h)
  7020  0F7A  00CF               	movwf	((?___lwdiv))+1
  7021  0F7B  0821               	movf	(_KeroseneStock+1),w
  7022  0F7C  01D1               	clrf	1+(?___lwdiv)+02h
  7023  0F7D  07D1               	addwf	1+(?___lwdiv)+02h
  7024  0F7E  0820               	movf	(_KeroseneStock),w
  7025  0F7F  01D0               	clrf	0+(?___lwdiv)+02h
  7026  0F80  07D0               	addwf	0+(?___lwdiv)+02h
  7027                           
  7028  0F81  160A  118A  275A   	fcall	___lwdiv
              120A  158A         
  7029  0F86  1283               	bcf	status, 5	;RP0=0, select bank0
  7030  0F87  1303               	bcf	status, 6	;RP1=0, select bank0
  7031  0F88  084E               	movf	(0+(?___lwdiv)),w
  7032  0F89  3E1D               	addlw	low(_digit|8000h)
  7033  0F8A  0084               	movwf	fsr0
  7034  0F8B  3098               	movlw	high(_digit|8000h)
  7035  0F8C  1803               	skipnc
  7036  0F8D  3E01               	addlw	1
  7037  0F8E  00FF               	movwf	btemp+1
  7038  0F8F  160A  158A  2000   	fcall	stringtab
              120A  158A         
  7039  0F94  00D6               	movwf	(??_LoadStockToArray+0)+0
  7040  0F95  0856               	movf	(??_LoadStockToArray+0)+0,w
  7041  0F96  00C0               	movwf	(_KeroseneArray)
  7042                           	line	186
  7043                           	
  7044  0F97                     l4546:	
  7045                           ;Main.c: 186: KeroseneArray[1] = digit[KeroseneStock%100/10];
  7046  0F97  300A               	movlw	low(0Ah)
  7047  0F98  00CE               	movwf	(?___lwdiv)
  7048  0F99  3000               	movlw	high(0Ah)
  7049  0F9A  00CF               	movwf	((?___lwdiv))+1
  7050  0F9B  0821               	movf	(_KeroseneStock+1),w
  7051  0F9C  01CB               	clrf	1+(?___lwmod)+02h
  7052  0F9D  07CB               	addwf	1+(?___lwmod)+02h
  7053  0F9E  0820               	movf	(_KeroseneStock),w
  7054  0F9F  01CA               	clrf	0+(?___lwmod)+02h
  7055  0FA0  07CA               	addwf	0+(?___lwmod)+02h
  7056                           
  7057  0FA1  3064               	movlw	low(064h)
  7058  0FA2  00C8               	movwf	(?___lwmod)
  7059  0FA3  3000               	movlw	high(064h)
  7060  0FA4  00C9               	movwf	((?___lwmod))+1
  7061  0FA5  160A  118A  26CD   	fcall	___lwmod
              120A  158A         
  7062  0FAA  1283               	bcf	status, 5	;RP0=0, select bank0
  7063  0FAB  1303               	bcf	status, 6	;RP1=0, select bank0
  7064  0FAC  0849               	movf	(1+(?___lwmod)),w
  7065  0FAD  01D1               	clrf	1+(?___lwdiv)+02h
  7066  0FAE  07D1               	addwf	1+(?___lwdiv)+02h
  7067  0FAF  0848               	movf	(0+(?___lwmod)),w
  7068  0FB0  01D0               	clrf	0+(?___lwdiv)+02h
  7069  0FB1  07D0               	addwf	0+(?___lwdiv)+02h
  7070                           
  7071  0FB2  160A  118A  275A   	fcall	___lwdiv
              120A  158A         
  7072  0FB7  1283               	bcf	status, 5	;RP0=0, select bank0
  7073  0FB8  1303               	bcf	status, 6	;RP1=0, select bank0
  7074  0FB9  084E               	movf	(0+(?___lwdiv)),w
  7075  0FBA  3E1D               	addlw	low(_digit|8000h)
  7076  0FBB  0084               	movwf	fsr0
  7077  0FBC  3098               	movlw	high(_digit|8000h)
  7078  0FBD  1803               	skipnc
  7079  0FBE  3E01               	addlw	1
  7080  0FBF  00FF               	movwf	btemp+1
  7081  0FC0  160A  158A  2000   	fcall	stringtab
              120A  158A         
  7082  0FC5  00D6               	movwf	(??_LoadStockToArray+0)+0
  7083  0FC6  0856               	movf	(??_LoadStockToArray+0)+0,w
  7084  0FC7  00C1               	movwf	0+(_KeroseneArray)+01h
  7085                           	line	187
  7086                           	
  7087  0FC8                     l4548:	
  7088                           ;Main.c: 187: KeroseneArray[2] = digit[KeroseneStock%100%10];
  7089  0FC8  0821               	movf	(_KeroseneStock+1),w
  7090  0FC9  01CB               	clrf	1+(?___lwmod)+02h
  7091  0FCA  07CB               	addwf	1+(?___lwmod)+02h
  7092  0FCB  0820               	movf	(_KeroseneStock),w
  7093  0FCC  01CA               	clrf	0+(?___lwmod)+02h
  7094  0FCD  07CA               	addwf	0+(?___lwmod)+02h
  7095                           
  7096  0FCE  3064               	movlw	low(064h)
  7097  0FCF  00C8               	movwf	(?___lwmod)
  7098  0FD0  3000               	movlw	high(064h)
  7099  0FD1  00C9               	movwf	((?___lwmod))+1
  7100  0FD2  160A  118A  26CD   	fcall	___lwmod
              120A  158A         
  7101  0FD7  1283               	bcf	status, 5	;RP0=0, select bank0
  7102  0FD8  1303               	bcf	status, 6	;RP1=0, select bank0
  7103  0FD9  0849               	movf	(1+(?___lwmod)),w
  7104  0FDA  01D8               	clrf	(_LoadStockToArray$1138+1)
  7105  0FDB  07D8               	addwf	(_LoadStockToArray$1138+1)
  7106  0FDC  0848               	movf	(0+(?___lwmod)),w
  7107  0FDD  01D7               	clrf	(_LoadStockToArray$1138)
  7108  0FDE  07D7               	addwf	(_LoadStockToArray$1138)
  7109                           
  7110                           ;Main.c: 187: KeroseneArray[2] = digit[KeroseneStock%100%10];
  7111  0FDF  300A               	movlw	low(0Ah)
  7112  0FE0  00C8               	movwf	(?___lwmod)
  7113  0FE1  3000               	movlw	high(0Ah)
  7114  0FE2  00C9               	movwf	((?___lwmod))+1
  7115  0FE3  0858               	movf	(_LoadStockToArray$1138+1),w
  7116  0FE4  01CB               	clrf	1+(?___lwmod)+02h
  7117  0FE5  07CB               	addwf	1+(?___lwmod)+02h
  7118  0FE6  0857               	movf	(_LoadStockToArray$1138),w
  7119  0FE7  01CA               	clrf	0+(?___lwmod)+02h
  7120  0FE8  07CA               	addwf	0+(?___lwmod)+02h
  7121                           
  7122  0FE9  160A  118A  26CD   	fcall	___lwmod
              120A  158A         
  7123  0FEE  1283               	bcf	status, 5	;RP0=0, select bank0
  7124  0FEF  1303               	bcf	status, 6	;RP1=0, select bank0
  7125  0FF0  0848               	movf	(0+(?___lwmod)),w
  7126  0FF1  3E1D               	addlw	low(_digit|8000h)
  7127  0FF2  0084               	movwf	fsr0
  7128  0FF3  3098               	movlw	high(_digit|8000h)
  7129  0FF4  1803               	skipnc
  7130  0FF5  3E01               	addlw	1
  7131  0FF6  00FF               	movwf	btemp+1
  7132  0FF7  160A  158A  2000   	fcall	stringtab
              120A  158A         
  7133  0FFC  00D6               	movwf	(??_LoadStockToArray+0)+0
  7134  0FFD  0856               	movf	(??_LoadStockToArray+0)+0,w
  7135  0FFE  00C2               	movwf	0+(_KeroseneArray)+02h
  7136                           	line	188
  7137                           	
  7138  0FFF                     l1146:	
  7139  0FFF  0008               	return
  7140                           	opt stack 0
  7141                           GLOBAL	__end_of_LoadStockToArray
  7142  1000                     	__end_of_LoadStockToArray:
  7143 ;; =============== function _LoadStockToArray ends ============
  7144                           
  7145                           	signat	_LoadStockToArray,88
  7146                           	global	_paramter
  7147                           psect	text910,local,class=CODE,delta=2
  7148                           global __ptext910
  7149  08C0                     __ptext910:
  7150                           
  7151 ;; *************** function _paramter *****************
  7152 ;; Defined at:
  7153 ;;		line 156 in file "F:\PiROOT_Tech\student_projects\AutomaticRationCardSystem\Main.c"
  7154 ;; Parameters:    Size  Location     Type
  7155 ;;		None
  7156 ;; Auto vars:     Size  Location     Type
  7157 ;;		None
  7158 ;; Return value:  Size  Location     Type
  7159 ;;		None               void
  7160 ;; Registers used:
  7161 ;;		wreg, status,2, status,0, pclath, cstack
  7162 ;; Tracked objects:
  7163 ;;		On entry : 0/0
  7164 ;;		On exit  : 0/0
  7165 ;;		Unchanged: 0/0
  7166 ;; Data sizes:     COMMON   BANK0   BANK1   BANK3   BANK2
  7167 ;;      Params:         0       0       0       0       0
  7168 ;;      Locals:         0       0       0       0       0
  7169 ;;      Temps:          0       3       0       0       0
  7170 ;;      Totals:         0       3       0       0       0
  7171 ;;Total ram usage:        3 bytes
  7172 ;; Hardware stack levels used:    1
  7173 ;; Hardware stack levels required when called:    4
  7174 ;; This function calls:
  7175 ;;		_eeprom_read
  7176 ;;		___wmul
  7177 ;; This function is called by:
  7178 ;;		_main
  7179 ;; This function uses a non-reentrant model
  7180 ;;
  7181                           psect	text910
  7182                           	file	"F:\PiROOT_Tech\student_projects\AutomaticRationCardSystem\Main.c"
  7183                           	line	156
  7184                           	global	__size_of_paramter
  7185  0055                     	__size_of_paramter	equ	__end_of_paramter-_paramter
  7186                           	
  7187  08C0                     _paramter:	
  7188                           	opt	stack 3
  7189                           ; Regs used in _paramter: [wreg+status,2+status,0+pclath+cstack]
  7190                           	line	157
  7191                           	
  7192  08C0                     l4530:	
  7193                           ;Main.c: 157: c1=(eeprom_read(0)*100)+eeprom_read(1);
  7194  08C0  3001               	movlw	(01h)
  7195  08C1  160A  118A  2452   	fcall	_eeprom_read
              120A  158A         
  7196  08C6  1283               	bcf	status, 5	;RP0=0, select bank0
  7197  08C7  1303               	bcf	status, 6	;RP1=0, select bank0
  7198  08C8  00D2               	movwf	(??_paramter+0)+0
  7199  08C9  3000               	movlw	(0)
  7200  08CA  160A  118A  2452   	fcall	_eeprom_read
              120A  158A         
  7201  08CF  1283               	bcf	status, 5	;RP0=0, select bank0
  7202  08D0  1303               	bcf	status, 6	;RP1=0, select bank0
  7203  08D1  00D3               	movwf	(??_paramter+1)+0
  7204  08D2  01D4               	clrf	(??_paramter+1)+0+1
  7205  08D3  0853               	movf	0+(??_paramter+1)+0,w
  7206  08D4  00CC               	movwf	(?___wmul)
  7207  08D5  0854               	movf	1+(??_paramter+1)+0,w
  7208  08D6  00CD               	movwf	(?___wmul+1)
  7209  08D7  3064               	movlw	low(064h)
  7210  08D8  00CE               	movwf	0+(?___wmul)+02h
  7211  08D9  3000               	movlw	high(064h)
  7212  08DA  00CF               	movwf	(0+(?___wmul)+02h)+1
  7213  08DB  160A  118A  24FE   	fcall	___wmul
              120A  158A         
  7214  08E0  1283               	bcf	status, 5	;RP0=0, select bank0
  7215  08E1  1303               	bcf	status, 6	;RP1=0, select bank0
  7216  08E2  0852               	movf	0+(??_paramter+0)+0,w
  7217  08E3  074C               	addwf	(0+(?___wmul)),w
  7218  08E4  00AE               	movwf	(_c1)
  7219  08E5  3000               	movlw	0
  7220  08E6  1803               	skipnc
  7221  08E7  3001               	movlw	1
  7222  08E8  074D               	addwf	(1+(?___wmul)),w
  7223  08E9  00AF               	movwf	1+(_c1)
  7224                           	line	158
  7225                           ;Main.c: 158: c2=(eeprom_read(2)*100)+eeprom_read(3);
  7226  08EA  3003               	movlw	(03h)
  7227  08EB  160A  118A  2452   	fcall	_eeprom_read
              120A  158A         
  7228  08F0  1283               	bcf	status, 5	;RP0=0, select bank0
  7229  08F1  1303               	bcf	status, 6	;RP1=0, select bank0
  7230  08F2  00D2               	movwf	(??_paramter+0)+0
  7231  08F3  3002               	movlw	(02h)
  7232  08F4  160A  118A  2452   	fcall	_eeprom_read
              120A  158A         
  7233  08F9  1283               	bcf	status, 5	;RP0=0, select bank0
  7234  08FA  1303               	bcf	status, 6	;RP1=0, select bank0
  7235  08FB  00D3               	movwf	(??_paramter+1)+0
  7236  08FC  01D4               	clrf	(??_paramter+1)+0+1
  7237  08FD  0853               	movf	0+(??_paramter+1)+0,w
  7238  08FE  00CC               	movwf	(?___wmul)
  7239  08FF  0854               	movf	1+(??_paramter+1)+0,w
  7240  0900  00CD               	movwf	(?___wmul+1)
  7241  0901  3064               	movlw	low(064h)
  7242  0902  00CE               	movwf	0+(?___wmul)+02h
  7243  0903  3000               	movlw	high(064h)
  7244  0904  00CF               	movwf	(0+(?___wmul)+02h)+1
  7245  0905  160A  118A  24FE   	fcall	___wmul
              120A  158A         
  7246  090A  1283               	bcf	status, 5	;RP0=0, select bank0
  7247  090B  1303               	bcf	status, 6	;RP1=0, select bank0
  7248  090C  0852               	movf	0+(??_paramter+0)+0,w
  7249  090D  074C               	addwf	(0+(?___wmul)),w
  7250  090E  00B0               	movwf	(_c2)
  7251  090F  3000               	movlw	0
  7252  0910  1803               	skipnc
  7253  0911  3001               	movlw	1
  7254  0912  074D               	addwf	(1+(?___wmul)),w
  7255  0913  00B1               	movwf	1+(_c2)
  7256                           	line	159
  7257                           	
  7258  0914                     l1140:	
  7259  0914  0008               	return
  7260                           	opt stack 0
  7261                           GLOBAL	__end_of_paramter
  7262  0915                     	__end_of_paramter:
  7263 ;; =============== function _paramter ends ============
  7264                           
  7265                           	signat	_paramter,88
  7266                           	global	_ReadStock
  7267                           psect	text911,local,class=CODE,delta=2
  7268                           global __ptext911
  7269  1713                     __ptext911:
  7270                           
  7271 ;; *************** function _ReadStock *****************
  7272 ;; Defined at:
  7273 ;;		line 107 in file "F:\PiROOT_Tech\student_projects\AutomaticRationCardSystem\Main.c"
  7274 ;; Parameters:    Size  Location     Type
  7275 ;;		None
  7276 ;; Auto vars:     Size  Location     Type
  7277 ;;		None
  7278 ;; Return value:  Size  Location     Type
  7279 ;;		None               void
  7280 ;; Registers used:
  7281 ;;		wreg, status,2, status,0, pclath, cstack
  7282 ;; Tracked objects:
  7283 ;;		On entry : 0/0
  7284 ;;		On exit  : 0/0
  7285 ;;		Unchanged: 0/0
  7286 ;; Data sizes:     COMMON   BANK0   BANK1   BANK3   BANK2
  7287 ;;      Params:         0       0       0       0       0
  7288 ;;      Locals:         0       0       0       0       0
  7289 ;;      Temps:          0       3       0       0       0
  7290 ;;      Totals:         0       3       0       0       0
  7291 ;;Total ram usage:        3 bytes
  7292 ;; Hardware stack levels used:    1
  7293 ;; Hardware stack levels required when called:    4
  7294 ;; This function calls:
  7295 ;;		_eeprom_read
  7296 ;;		___wmul
  7297 ;; This function is called by:
  7298 ;;		_main
  7299 ;; This function uses a non-reentrant model
  7300 ;;
  7301                           psect	text911
  7302                           	file	"F:\PiROOT_Tech\student_projects\AutomaticRationCardSystem\Main.c"
  7303                           	line	107
  7304                           	global	__size_of_ReadStock
  7305  0047                     	__size_of_ReadStock	equ	__end_of_ReadStock-_ReadStock
  7306                           	
  7307  1713                     _ReadStock:	
  7308                           	opt	stack 3
  7309                           ; Regs used in _ReadStock: [wreg+status,2+status,0+pclath+cstack]
  7310                           	line	108
  7311                           	
  7312  1713                     l4528:	
  7313                           ;Main.c: 108: RiseStock=(eeprom_read(24)*100)+eeprom_read(25);
  7314  1713  3019               	movlw	(019h)
  7315  1714  160A  118A  2452   	fcall	_eeprom_read
              160A  118A         
  7316  1719  1283               	bcf	status, 5	;RP0=0, select bank0
  7317  171A  1303               	bcf	status, 6	;RP1=0, select bank0
  7318  171B  00D2               	movwf	(??_ReadStock+0)+0
  7319  171C  3018               	movlw	(018h)
  7320  171D  160A  118A  2452   	fcall	_eeprom_read
              160A  118A         
  7321  1722  1283               	bcf	status, 5	;RP0=0, select bank0
  7322  1723  1303               	bcf	status, 6	;RP1=0, select bank0
  7323  1724  00D3               	movwf	(??_ReadStock+1)+0
  7324  1725  01D4               	clrf	(??_ReadStock+1)+0+1
  7325  1726  0853               	movf	0+(??_ReadStock+1)+0,w
  7326  1727  00CC               	movwf	(?___wmul)
  7327  1728  0854               	movf	1+(??_ReadStock+1)+0,w
  7328  1729  00CD               	movwf	(?___wmul+1)
  7329  172A  3064               	movlw	low(064h)
  7330  172B  00CE               	movwf	0+(?___wmul)+02h
  7331  172C  3000               	movlw	high(064h)
  7332  172D  00CF               	movwf	(0+(?___wmul)+02h)+1
  7333  172E  160A  118A  24FE   	fcall	___wmul
              160A  118A         
  7334  1733  1283               	bcf	status, 5	;RP0=0, select bank0
  7335  1734  1303               	bcf	status, 6	;RP1=0, select bank0
  7336  1735  0852               	movf	0+(??_ReadStock+0)+0,w
  7337  1736  074C               	addwf	(0+(?___wmul)),w
  7338  1737  00A2               	movwf	(_RiseStock)
  7339  1738  3000               	movlw	0
  7340  1739  1803               	skipnc
  7341  173A  3001               	movlw	1
  7342  173B  074D               	addwf	(1+(?___wmul)),w
  7343  173C  00A3               	movwf	1+(_RiseStock)
  7344                           	line	109
  7345                           ;Main.c: 109: SugarStock=eeprom_read(26);
  7346  173D  301A               	movlw	(01Ah)
  7347  173E  160A  118A  2452   	fcall	_eeprom_read
              160A  118A         
  7348  1743  1283               	bcf	status, 5	;RP0=0, select bank0
  7349  1744  1303               	bcf	status, 6	;RP1=0, select bank0
  7350  1745  00D2               	movwf	(??_ReadStock+0)+0
  7351  1746  01D3               	clrf	(??_ReadStock+0)+0+1
  7352  1747  0852               	movf	0+(??_ReadStock+0)+0,w
  7353  1748  00A4               	movwf	(_SugarStock)
  7354  1749  0853               	movf	1+(??_ReadStock+0)+0,w
  7355  174A  00A5               	movwf	(_SugarStock+1)
  7356                           	line	110
  7357                           ;Main.c: 110: KeroseneStock=eeprom_read(27);
  7358  174B  301B               	movlw	(01Bh)
  7359  174C  160A  118A  2452   	fcall	_eeprom_read
              160A  118A         
  7360  1751  1283               	bcf	status, 5	;RP0=0, select bank0
  7361  1752  1303               	bcf	status, 6	;RP1=0, select bank0
  7362  1753  00D2               	movwf	(??_ReadStock+0)+0
  7363  1754  01D3               	clrf	(??_ReadStock+0)+0+1
  7364  1755  0852               	movf	0+(??_ReadStock+0)+0,w
  7365  1756  00A0               	movwf	(_KeroseneStock)
  7366  1757  0853               	movf	1+(??_ReadStock+0)+0,w
  7367  1758  00A1               	movwf	(_KeroseneStock+1)
  7368                           	line	111
  7369                           	
  7370  1759                     l1122:	
  7371  1759  0008               	return
  7372                           	opt stack 0
  7373                           GLOBAL	__end_of_ReadStock
  7374  175A                     	__end_of_ReadStock:
  7375 ;; =============== function _ReadStock ends ============
  7376                           
  7377                           	signat	_ReadStock,88
  7378                           	global	_ReadAmnt
  7379                           psect	text912,local,class=CODE,delta=2
  7380                           global __ptext912
  7381  0C47                     __ptext912:
  7382                           
  7383 ;; *************** function _ReadAmnt *****************
  7384 ;; Defined at:
  7385 ;;		line 91 in file "F:\PiROOT_Tech\student_projects\AutomaticRationCardSystem\Main.c"
  7386 ;; Parameters:    Size  Location     Type
  7387 ;;		None
  7388 ;; Auto vars:     Size  Location     Type
  7389 ;;		None
  7390 ;; Return value:  Size  Location     Type
  7391 ;;		None               void
  7392 ;; Registers used:
  7393 ;;		wreg, status,2, status,0, pclath, cstack
  7394 ;; Tracked objects:
  7395 ;;		On entry : 0/0
  7396 ;;		On exit  : 0/0
  7397 ;;		Unchanged: 0/0
  7398 ;; Data sizes:     COMMON   BANK0   BANK1   BANK3   BANK2
  7399 ;;      Params:         0       0       0       0       0
  7400 ;;      Locals:         0       0       0       0       0
  7401 ;;      Temps:          0       3       0       0       0
  7402 ;;      Totals:         0       3       0       0       0
  7403 ;;Total ram usage:        3 bytes
  7404 ;; Hardware stack levels used:    1
  7405 ;; Hardware stack levels required when called:    4
  7406 ;; This function calls:
  7407 ;;		_eeprom_read
  7408 ;;		___wmul
  7409 ;; This function is called by:
  7410 ;;		_main
  7411 ;; This function uses a non-reentrant model
  7412 ;;
  7413                           psect	text912
  7414                           	file	"F:\PiROOT_Tech\student_projects\AutomaticRationCardSystem\Main.c"
  7415                           	line	91
  7416                           	global	__size_of_ReadAmnt
  7417  00E2                     	__size_of_ReadAmnt	equ	__end_of_ReadAmnt-_ReadAmnt
  7418                           	
  7419  0C47                     _ReadAmnt:	
  7420                           	opt	stack 3
  7421                           ; Regs used in _ReadAmnt: [wreg+status,2+status,0+pclath+cstack]
  7422                           	line	92
  7423                           	
  7424  0C47                     l4526:	
  7425                           ;Main.c: 92: User1amt=(eeprom_read(0)*100)+eeprom_read(1);
  7426  0C47  3001               	movlw	(01h)
  7427  0C48  160A  118A  2452   	fcall	_eeprom_read
              120A  158A         
  7428  0C4D  1283               	bcf	status, 5	;RP0=0, select bank0
  7429  0C4E  1303               	bcf	status, 6	;RP1=0, select bank0
  7430  0C4F  00D2               	movwf	(??_ReadAmnt+0)+0
  7431  0C50  3000               	movlw	(0)
  7432  0C51  160A  118A  2452   	fcall	_eeprom_read
              120A  158A         
  7433  0C56  1283               	bcf	status, 5	;RP0=0, select bank0
  7434  0C57  1303               	bcf	status, 6	;RP1=0, select bank0
  7435  0C58  00D3               	movwf	(??_ReadAmnt+1)+0
  7436  0C59  01D4               	clrf	(??_ReadAmnt+1)+0+1
  7437  0C5A  0853               	movf	0+(??_ReadAmnt+1)+0,w
  7438  0C5B  00CC               	movwf	(?___wmul)
  7439  0C5C  0854               	movf	1+(??_ReadAmnt+1)+0,w
  7440  0C5D  00CD               	movwf	(?___wmul+1)
  7441  0C5E  3064               	movlw	low(064h)
  7442  0C5F  00CE               	movwf	0+(?___wmul)+02h
  7443  0C60  3000               	movlw	high(064h)
  7444  0C61  00CF               	movwf	(0+(?___wmul)+02h)+1
  7445  0C62  160A  118A  24FE   	fcall	___wmul
              120A  158A         
  7446  0C67  1283               	bcf	status, 5	;RP0=0, select bank0
  7447  0C68  1303               	bcf	status, 6	;RP1=0, select bank0
  7448  0C69  0852               	movf	0+(??_ReadAmnt+0)+0,w
  7449  0C6A  074C               	addwf	(0+(?___wmul)),w
  7450  0C6B  00A8               	movwf	(_User1amt)
  7451  0C6C  3000               	movlw	0
  7452  0C6D  1803               	skipnc
  7453  0C6E  3001               	movlw	1
  7454  0C6F  074D               	addwf	(1+(?___wmul)),w
  7455  0C70  00A9               	movwf	1+(_User1amt)
  7456                           	line	93
  7457                           ;Main.c: 93: User2amt=(eeprom_read(8)*100)+eeprom_read(9);
  7458  0C71  3009               	movlw	(09h)
  7459  0C72  160A  118A  2452   	fcall	_eeprom_read
              120A  158A         
  7460  0C77  1283               	bcf	status, 5	;RP0=0, select bank0
  7461  0C78  1303               	bcf	status, 6	;RP1=0, select bank0
  7462  0C79  00D2               	movwf	(??_ReadAmnt+0)+0
  7463  0C7A  3008               	movlw	(08h)
  7464  0C7B  160A  118A  2452   	fcall	_eeprom_read
              120A  158A         
  7465  0C80  1283               	bcf	status, 5	;RP0=0, select bank0
  7466  0C81  1303               	bcf	status, 6	;RP1=0, select bank0
  7467  0C82  00D3               	movwf	(??_ReadAmnt+1)+0
  7468  0C83  01D4               	clrf	(??_ReadAmnt+1)+0+1
  7469  0C84  0853               	movf	0+(??_ReadAmnt+1)+0,w
  7470  0C85  00CC               	movwf	(?___wmul)
  7471  0C86  0854               	movf	1+(??_ReadAmnt+1)+0,w
  7472  0C87  00CD               	movwf	(?___wmul+1)
  7473  0C88  3064               	movlw	low(064h)
  7474  0C89  00CE               	movwf	0+(?___wmul)+02h
  7475  0C8A  3000               	movlw	high(064h)
  7476  0C8B  00CF               	movwf	(0+(?___wmul)+02h)+1
  7477  0C8C  160A  118A  24FE   	fcall	___wmul
              120A  158A         
  7478  0C91  1283               	bcf	status, 5	;RP0=0, select bank0
  7479  0C92  1303               	bcf	status, 6	;RP1=0, select bank0
  7480  0C93  0852               	movf	0+(??_ReadAmnt+0)+0,w
  7481  0C94  074C               	addwf	(0+(?___wmul)),w
  7482  0C95  00AA               	movwf	(_User2amt)
  7483  0C96  3000               	movlw	0
  7484  0C97  1803               	skipnc
  7485  0C98  3001               	movlw	1
  7486  0C99  074D               	addwf	(1+(?___wmul)),w
  7487  0C9A  00AB               	movwf	1+(_User2amt)
  7488                           	line	94
  7489                           ;Main.c: 94: User3amt=(eeprom_read(16)*100)+eeprom_read(17);
  7490  0C9B  3011               	movlw	(011h)
  7491  0C9C  160A  118A  2452   	fcall	_eeprom_read
              120A  158A         
  7492  0CA1  1283               	bcf	status, 5	;RP0=0, select bank0
  7493  0CA2  1303               	bcf	status, 6	;RP1=0, select bank0
  7494  0CA3  00D2               	movwf	(??_ReadAmnt+0)+0
  7495  0CA4  3010               	movlw	(010h)
  7496  0CA5  160A  118A  2452   	fcall	_eeprom_read
              120A  158A         
  7497  0CAA  1283               	bcf	status, 5	;RP0=0, select bank0
  7498  0CAB  1303               	bcf	status, 6	;RP1=0, select bank0
  7499  0CAC  00D3               	movwf	(??_ReadAmnt+1)+0
  7500  0CAD  01D4               	clrf	(??_ReadAmnt+1)+0+1
  7501  0CAE  0853               	movf	0+(??_ReadAmnt+1)+0,w
  7502  0CAF  00CC               	movwf	(?___wmul)
  7503  0CB0  0854               	movf	1+(??_ReadAmnt+1)+0,w
  7504  0CB1  00CD               	movwf	(?___wmul+1)
  7505  0CB2  3064               	movlw	low(064h)
  7506  0CB3  00CE               	movwf	0+(?___wmul)+02h
  7507  0CB4  3000               	movlw	high(064h)
  7508  0CB5  00CF               	movwf	(0+(?___wmul)+02h)+1
  7509  0CB6  160A  118A  24FE   	fcall	___wmul
              120A  158A         
  7510  0CBB  1283               	bcf	status, 5	;RP0=0, select bank0
  7511  0CBC  1303               	bcf	status, 6	;RP1=0, select bank0
  7512  0CBD  0852               	movf	0+(??_ReadAmnt+0)+0,w
  7513  0CBE  074C               	addwf	(0+(?___wmul)),w
  7514  0CBF  00AC               	movwf	(_User3amt)
  7515  0CC0  3000               	movlw	0
  7516  0CC1  1803               	skipnc
  7517  0CC2  3001               	movlw	1
  7518  0CC3  074D               	addwf	(1+(?___wmul)),w
  7519  0CC4  00AD               	movwf	1+(_User3amt)
  7520                           	line	95
  7521                           ;Main.c: 95: User1Rise = eeprom_read(2);
  7522  0CC5  3002               	movlw	(02h)
  7523  0CC6  160A  118A  2452   	fcall	_eeprom_read
              120A  158A         
  7524  0CCB  1283               	bcf	status, 5	;RP0=0, select bank0
  7525  0CCC  1303               	bcf	status, 6	;RP1=0, select bank0
  7526  0CCD  00D2               	movwf	(??_ReadAmnt+0)+0
  7527  0CCE  0852               	movf	(??_ReadAmnt+0)+0,w
  7528  0CCF  00B3               	movwf	(_User1Rise)
  7529                           	line	96
  7530                           ;Main.c: 96: User2Rise = eeprom_read(10);
  7531  0CD0  300A               	movlw	(0Ah)
  7532  0CD1  160A  118A  2452   	fcall	_eeprom_read
              120A  158A         
  7533  0CD6  1283               	bcf	status, 5	;RP0=0, select bank0
  7534  0CD7  1303               	bcf	status, 6	;RP1=0, select bank0
  7535  0CD8  00D2               	movwf	(??_ReadAmnt+0)+0
  7536  0CD9  0852               	movf	(??_ReadAmnt+0)+0,w
  7537  0CDA  00B6               	movwf	(_User2Rise)
  7538                           	line	97
  7539                           ;Main.c: 97: User3Rise = eeprom_read(18);
  7540  0CDB  3012               	movlw	(012h)
  7541  0CDC  160A  118A  2452   	fcall	_eeprom_read
              120A  158A         
  7542  0CE1  1283               	bcf	status, 5	;RP0=0, select bank0
  7543  0CE2  1303               	bcf	status, 6	;RP1=0, select bank0
  7544  0CE3  00D2               	movwf	(??_ReadAmnt+0)+0
  7545  0CE4  0852               	movf	(??_ReadAmnt+0)+0,w
  7546  0CE5  00B9               	movwf	(_User3Rise)
  7547                           	line	98
  7548                           ;Main.c: 98: User1Kerosene = eeprom_read(4);
  7549  0CE6  3004               	movlw	(04h)
  7550  0CE7  160A  118A  2452   	fcall	_eeprom_read
              120A  158A         
  7551  0CEC  1283               	bcf	status, 5	;RP0=0, select bank0
  7552  0CED  1303               	bcf	status, 6	;RP1=0, select bank0
  7553  0CEE  00D2               	movwf	(??_ReadAmnt+0)+0
  7554  0CEF  0852               	movf	(??_ReadAmnt+0)+0,w
  7555  0CF0  00B2               	movwf	(_User1Kerosene)
  7556                           	line	99
  7557                           ;Main.c: 99: User2Kerosene = eeprom_read(12);
  7558  0CF1  300C               	movlw	(0Ch)
  7559  0CF2  160A  118A  2452   	fcall	_eeprom_read
              120A  158A         
  7560  0CF7  1283               	bcf	status, 5	;RP0=0, select bank0
  7561  0CF8  1303               	bcf	status, 6	;RP1=0, select bank0
  7562  0CF9  00D2               	movwf	(??_ReadAmnt+0)+0
  7563  0CFA  0852               	movf	(??_ReadAmnt+0)+0,w
  7564  0CFB  00B5               	movwf	(_User2Kerosene)
  7565                           	line	100
  7566                           ;Main.c: 100: User3Kerosene = eeprom_read(20);
  7567  0CFC  3014               	movlw	(014h)
  7568  0CFD  160A  118A  2452   	fcall	_eeprom_read
              120A  158A         
  7569  0D02  1283               	bcf	status, 5	;RP0=0, select bank0
  7570  0D03  1303               	bcf	status, 6	;RP1=0, select bank0
  7571  0D04  00D2               	movwf	(??_ReadAmnt+0)+0
  7572  0D05  0852               	movf	(??_ReadAmnt+0)+0,w
  7573  0D06  00B8               	movwf	(_User3Kerosene)
  7574                           	line	101
  7575                           ;Main.c: 101: User1Sugar = eeprom_read(3);
  7576  0D07  3003               	movlw	(03h)
  7577  0D08  160A  118A  2452   	fcall	_eeprom_read
              120A  158A         
  7578  0D0D  1283               	bcf	status, 5	;RP0=0, select bank0
  7579  0D0E  1303               	bcf	status, 6	;RP1=0, select bank0
  7580  0D0F  00D2               	movwf	(??_ReadAmnt+0)+0
  7581  0D10  0852               	movf	(??_ReadAmnt+0)+0,w
  7582  0D11  00B4               	movwf	(_User1Sugar)
  7583                           	line	102
  7584                           ;Main.c: 102: User2Sugar = eeprom_read(11);
  7585  0D12  300B               	movlw	(0Bh)
  7586  0D13  160A  118A  2452   	fcall	_eeprom_read
              120A  158A         
  7587  0D18  1283               	bcf	status, 5	;RP0=0, select bank0
  7588  0D19  1303               	bcf	status, 6	;RP1=0, select bank0
  7589  0D1A  00D2               	movwf	(??_ReadAmnt+0)+0
  7590  0D1B  0852               	movf	(??_ReadAmnt+0)+0,w
  7591  0D1C  00B7               	movwf	(_User2Sugar)
  7592                           	line	103
  7593                           ;Main.c: 103: User3Sugar = eeprom_read(19);
  7594  0D1D  3013               	movlw	(013h)
  7595  0D1E  160A  118A  2452   	fcall	_eeprom_read
              120A  158A         
  7596  0D23  1283               	bcf	status, 5	;RP0=0, select bank0
  7597  0D24  1303               	bcf	status, 6	;RP1=0, select bank0
  7598  0D25  00D2               	movwf	(??_ReadAmnt+0)+0
  7599  0D26  0852               	movf	(??_ReadAmnt+0)+0,w
  7600  0D27  00BA               	movwf	(_User3Sugar)
  7601                           	line	104
  7602                           	
  7603  0D28                     l1119:	
  7604  0D28  0008               	return
  7605                           	opt stack 0
  7606                           GLOBAL	__end_of_ReadAmnt
  7607  0D29                     	__end_of_ReadAmnt:
  7608 ;; =============== function _ReadAmnt ends ============
  7609                           
  7610                           	signat	_ReadAmnt,88
  7611                           	global	_usartstring
  7612                           psect	text913,local,class=CODE,delta=2
  7613                           global __ptext913
  7614  14A6                     __ptext913:
  7615                           
  7616 ;; *************** function _usartstring *****************
  7617 ;; Defined at:
  7618 ;;		line 22 in file "F:\PiROOT_Tech\student_projects\AutomaticRationCardSystem\UART.C"
  7619 ;; Parameters:    Size  Location     Type
  7620 ;;  st              2    1[BANK0 ] PTR const unsigned char 
  7621 ;;		 -> STR_33(5), STR_32(16), STR_31(5), STR_30(13), 
  7622 ;;		 -> STR_29(5), STR_28(12), STR_27(24), KeroseneArray(4), 
  7623 ;;		 -> SugarArray(4), RiseArray(5), STR_18(20), STR_17(24), 
  7624 ;;		 -> STR_16(20), STR_15(24), STR_14(20), STR_13(24), 
  7625 ;;		 -> STR_12(29), STR_11(24), STR_10(27), STR_9(24), 
  7626 ;;		 -> STR_7(19), STR_6(11), STR_5(11), STR_4(10), 
  7627 ;;		 -> STR_3(4), 
  7628 ;; Auto vars:     Size  Location     Type
  7629 ;;		None
  7630 ;; Return value:  Size  Location     Type
  7631 ;;		None               void
  7632 ;; Registers used:
  7633 ;;		wreg, fsr0l, fsr0h, status,2, status,0, btemp+1, pclath, cstack
  7634 ;; Tracked objects:
  7635 ;;		On entry : 0/0
  7636 ;;		On exit  : 0/0
  7637 ;;		Unchanged: 0/0
  7638 ;; Data sizes:     COMMON   BANK0   BANK1   BANK3   BANK2
  7639 ;;      Params:         0       2       0       0       0
  7640 ;;      Locals:         0       0       0       0       0
  7641 ;;      Temps:          0       0       0       0       0
  7642 ;;      Totals:         0       2       0       0       0
  7643 ;;Total ram usage:        2 bytes
  7644 ;; Hardware stack levels used:    1
  7645 ;; Hardware stack levels required when called:    4
  7646 ;; This function calls:
  7647 ;;		_transmit
  7648 ;; This function is called by:
  7649 ;;		_gsm_init
  7650 ;;		_SendStock
  7651 ;;		_send_moister_message2
  7652 ;;		_send_moister_message1
  7653 ;;		_send_stage1_message
  7654 ;;		_send_stage2_message
  7655 ;;		_send_stage3_message
  7656 ;; This function uses a non-reentrant model
  7657 ;;
  7658                           psect	text913
  7659                           	file	"F:\PiROOT_Tech\student_projects\AutomaticRationCardSystem\UART.C"
  7660                           	line	22
  7661                           	global	__size_of_usartstring
  7662  002C                     	__size_of_usartstring	equ	__end_of_usartstring-_usartstring
  7663                           	
  7664  14A6                     _usartstring:	
  7665                           	opt	stack 2
  7666                           ; Regs used in _usartstring: [wreg-fsr0h+status,2+status,0+btemp+1+pclath+cstack]
  7667                           	line	23
  7668                           	
  7669  14A6                     l4518:	
  7670                           ;UART.C: 23: while(*st)
  7671  14A6  2CC0               	goto	l4524
  7672                           	
  7673  14A7                     l1031:	
  7674                           	line	24
  7675                           	
  7676  14A7                     l4520:	
  7677                           ;UART.C: 24: transmit(*st++);
  7678  14A7  1283               	bcf	status, 5	;RP0=0, select bank0
  7679  14A8  1303               	bcf	status, 6	;RP1=0, select bank0
  7680  14A9  084A               	movf	(usartstring@st+1),w
  7681  14AA  00FF               	movwf	btemp+1
  7682  14AB  0849               	movf	(usartstring@st),w
  7683  14AC  0084               	movwf	fsr0
  7684  14AD  160A  158A  2000   	fcall	stringtab
              160A  118A         
  7685  14B2  160A  118A  234D   	fcall	_transmit
              160A  118A         
  7686                           	
  7687  14B7                     l4522:	
  7688  14B7  3001               	movlw	low(01h)
  7689  14B8  1283               	bcf	status, 5	;RP0=0, select bank0
  7690  14B9  1303               	bcf	status, 6	;RP1=0, select bank0
  7691  14BA  07C9               	addwf	(usartstring@st),f
  7692  14BB  1803               	skipnc
  7693  14BC  0ACA               	incf	(usartstring@st+1),f
  7694  14BD  3000               	movlw	high(01h)
  7695  14BE  07CA               	addwf	(usartstring@st+1),f
  7696  14BF  2CC0               	goto	l4524
  7697                           	
  7698  14C0                     l1030:	
  7699                           	line	23
  7700                           	
  7701  14C0                     l4524:	
  7702  14C0  1283               	bcf	status, 5	;RP0=0, select bank0
  7703  14C1  1303               	bcf	status, 6	;RP1=0, select bank0
  7704  14C2  084A               	movf	(usartstring@st+1),w
  7705  14C3  00FF               	movwf	btemp+1
  7706  14C4  0849               	movf	(usartstring@st),w
  7707  14C5  0084               	movwf	fsr0
  7708  14C6  160A  158A  2000   	fcall	stringtab
              160A  118A         
  7709  14CB  3800               	iorlw	0
  7710  14CC  1D03               	skipz
  7711  14CD  2CCF               	goto	u3631
  7712  14CE  2CD0               	goto	u3630
  7713  14CF                     u3631:
  7714  14CF  2CA7               	goto	l4520
  7715  14D0                     u3630:
  7716  14D0  2CD1               	goto	l1033
  7717                           	
  7718  14D1                     l1032:	
  7719                           	line	25
  7720                           	
  7721  14D1                     l1033:	
  7722  14D1  0008               	return
  7723                           	opt stack 0
  7724                           GLOBAL	__end_of_usartstring
  7725  14D2                     	__end_of_usartstring:
  7726 ;; =============== function _usartstring ends ============
  7727                           
  7728                           	signat	_usartstring,4216
  7729                           	global	_softreceive
  7730                           psect	text914,local,class=CODE,delta=2
  7731                           global __ptext914
  7732  1643                     __ptext914:
  7733                           
  7734 ;; *************** function _softreceive *****************
  7735 ;; Defined at:
  7736 ;;		line 21 in file "F:\PiROOT_Tech\student_projects\AutomaticRationCardSystem\softuart.c"
  7737 ;; Parameters:    Size  Location     Type
  7738 ;;		None
  7739 ;; Auto vars:     Size  Location     Type
  7740 ;;  mask            1    3[BANK0 ] unsigned char 
  7741 ;;  Data            1    2[BANK0 ] unsigned char 
  7742 ;; Return value:  Size  Location     Type
  7743 ;;                  1    wreg      unsigned char 
  7744 ;; Registers used:
  7745 ;;		wreg, status,2, status,0
  7746 ;; Tracked objects:
  7747 ;;		On entry : 0/0
  7748 ;;		On exit  : 0/0
  7749 ;;		Unchanged: 0/0
  7750 ;; Data sizes:     COMMON   BANK0   BANK1   BANK3   BANK2
  7751 ;;      Params:         0       0       0       0       0
  7752 ;;      Locals:         0       2       0       0       0
  7753 ;;      Temps:          0       2       0       0       0
  7754 ;;      Totals:         0       4       0       0       0
  7755 ;;Total ram usage:        4 bytes
  7756 ;; Hardware stack levels used:    1
  7757 ;; Hardware stack levels required when called:    3
  7758 ;; This function calls:
  7759 ;;		Nothing
  7760 ;; This function is called by:
  7761 ;;		_RFID_read
  7762 ;; This function uses a non-reentrant model
  7763 ;;
  7764                           psect	text914
  7765                           	file	"F:\PiROOT_Tech\student_projects\AutomaticRationCardSystem\softuart.c"
  7766                           	line	21
  7767                           	global	__size_of_softreceive
  7768  0044                     	__size_of_softreceive	equ	__end_of_softreceive-_softreceive
  7769                           	
  7770  1643                     _softreceive:	
  7771                           	opt	stack 3
  7772                           ; Regs used in _softreceive: [wreg+status,2+status,0]
  7773                           	line	24
  7774                           	
  7775  1643                     l4496:	
  7776                           ;softuart.c: 22: char mask;
  7777                           ;softuart.c: 23: char Data;
  7778                           ;softuart.c: 24: Data=0;
  7779  1643  1003               	clrc
  7780  1644  3000               	movlw	0
  7781  1645  1803               	btfsc	status,0
  7782  1646  3001               	movlw	1
  7783  1647  1283               	bcf	status, 5	;RP0=0, select bank0
  7784  1648  1303               	bcf	status, 6	;RP1=0, select bank0
  7785  1649  00CA               	movwf	(softreceive@Data)
  7786                           	line	25
  7787                           ;softuart.c: 25: while(RD0);
  7788  164A  2E4B               	goto	l992
  7789                           	
  7790  164B                     l993:	
  7791                           	
  7792  164B                     l992:	
  7793  164B  1808               	btfsc	(64/8),(64)&7
  7794  164C  2E4E               	goto	u3591
  7795  164D  2E4F               	goto	u3590
  7796  164E                     u3591:
  7797  164E  2E4B               	goto	l992
  7798  164F                     u3590:
  7799  164F  2E50               	goto	l4498
  7800                           	
  7801  1650                     l994:	
  7802                           	line	26
  7803                           	
  7804  1650                     l4498:	
  7805                           ;softuart.c: 26: _delay((unsigned long)(((((1000000/9600)-2)/2))*(20000000/4000000.0)));
  7806                           	opt asmopt_off
  7807  1650  3054               movlw	84
  7808  1651  00C8               movwf	(??_softreceive+0)+0,f
  7809  1652                     u4037:
  7810  1652  0BC8               decfsz	(??_softreceive+0)+0,f
  7811  1653  2E52               	goto	u4037
  7812  1654  2E55               	nop2	;nop
  7813                           opt asmopt_on
  7814                           
  7815                           	line	27
  7816                           	
  7817  1655                     l4500:	
  7818                           ;softuart.c: 27: for(mask=0x01;mask!=0;mask=mask<<1)
  7819  1655  1283               	bcf	status, 5	;RP0=0, select bank0
  7820  1656  1303               	bcf	status, 6	;RP1=0, select bank0
  7821  1657  01CB               	clrf	(softreceive@mask)
  7822  1658  1403               	bsf	status,0
  7823  1659  0DCB               	rlf	(softreceive@mask),f
  7824                           	
  7825  165A                     l4502:	
  7826  165A  08CB               	movf	(softreceive@mask),f
  7827  165B  1D03               	skipz
  7828  165C  2E5E               	goto	u3601
  7829  165D  2E5F               	goto	u3600
  7830  165E                     u3601:
  7831  165E  2E61               	goto	l4506
  7832  165F                     u3600:
  7833  165F  2E7D               	goto	l4514
  7834                           	
  7835  1660                     l4504:	
  7836  1660  2E7D               	goto	l4514
  7837                           	line	28
  7838                           	
  7839  1661                     l995:	
  7840                           	line	29
  7841                           	
  7842  1661                     l4506:	
  7843                           ;softuart.c: 28: {
  7844                           ;softuart.c: 29: _delay((unsigned long)((((1000000/9600)-2))*(20000000/4000000.0)));
  7845                           	opt asmopt_off
  7846  1661  30A9               movlw	169
  7847  1662  00C8               movwf	(??_softreceive+0)+0,f
  7848  1663                     u4047:
  7849  1663  0BC8               decfsz	(??_softreceive+0)+0,f
  7850  1664  2E63               	goto	u4047
  7851  1665  2E66               	nop2	;nop
  7852                           opt asmopt_on
  7853                           
  7854                           	line	30
  7855                           	
  7856  1666                     l4508:	
  7857                           ;softuart.c: 30: if(RD0)Data=Data|mask;
  7858  1666  1283               	bcf	status, 5	;RP0=0, select bank0
  7859  1667  1303               	bcf	status, 6	;RP1=0, select bank0
  7860  1668  1C08               	btfss	(64/8),(64)&7
  7861  1669  2E6B               	goto	u3611
  7862  166A  2E6C               	goto	u3610
  7863  166B                     u3611:
  7864  166B  2E71               	goto	l997
  7865  166C                     u3610:
  7866                           	
  7867  166C                     l4510:	
  7868  166C  084A               	movf	(softreceive@Data),w
  7869  166D  044B               	iorwf	(softreceive@mask),w
  7870  166E  00C8               	movwf	(??_softreceive+0)+0
  7871  166F  0848               	movf	(??_softreceive+0)+0,w
  7872  1670  00CA               	movwf	(softreceive@Data)
  7873                           	
  7874  1671                     l997:	
  7875                           	line	27
  7876  1671  084B               	movf	(softreceive@mask),w
  7877  1672  00C8               	movwf	(??_softreceive+0)+0
  7878  1673  0748               	addwf	(??_softreceive+0)+0,w
  7879  1674  00C9               	movwf	(??_softreceive+1)+0
  7880  1675  0849               	movf	(??_softreceive+1)+0,w
  7881  1676  00CB               	movwf	(softreceive@mask)
  7882                           	
  7883  1677                     l4512:	
  7884  1677  08CB               	movf	(softreceive@mask),f
  7885  1678  1D03               	skipz
  7886  1679  2E7B               	goto	u3621
  7887  167A  2E7C               	goto	u3620
  7888  167B                     u3621:
  7889  167B  2E61               	goto	l4506
  7890  167C                     u3620:
  7891  167C  2E7D               	goto	l4514
  7892                           	
  7893  167D                     l996:	
  7894                           	line	32
  7895                           	
  7896  167D                     l4514:	
  7897                           ;softuart.c: 31: }
  7898                           ;softuart.c: 32: _delay((unsigned long)((((1000000/9600)-2))*(20000000/4000000.0)));
  7899                           	opt asmopt_off
  7900  167D  30A9               movlw	169
  7901  167E  00C8               movwf	(??_softreceive+0)+0,f
  7902  167F                     u4057:
  7903  167F  0BC8               decfsz	(??_softreceive+0)+0,f
  7904  1680  2E7F               	goto	u4057
  7905  1681  2E82               	nop2	;nop
  7906                           opt asmopt_on
  7907                           
  7908                           	line	33
  7909                           ;softuart.c: 33: return Data;
  7910  1682  1283               	bcf	status, 5	;RP0=0, select bank0
  7911  1683  1303               	bcf	status, 6	;RP1=0, select bank0
  7912  1684  084A               	movf	(softreceive@Data),w
  7913  1685  2E86               	goto	l998
  7914                           	
  7915  1686                     l4516:	
  7916                           	line	34
  7917                           	
  7918  1686                     l998:	
  7919  1686  0008               	return
  7920                           	opt stack 0
  7921                           GLOBAL	__end_of_softreceive
  7922  1687                     	__end_of_softreceive:
  7923 ;; =============== function _softreceive ends ============
  7924                           
  7925                           	signat	_softreceive,89
  7926                           	global	_SoftWareUart_Init
  7927                           psect	text915,local,class=CODE,delta=2
  7928                           global __ptext915
  7929  1378                     __ptext915:
  7930                           
  7931 ;; *************** function _SoftWareUart_Init *****************
  7932 ;; Defined at:
  7933 ;;		line 10 in file "F:\PiROOT_Tech\student_projects\AutomaticRationCardSystem\softuart.c"
  7934 ;; Parameters:    Size  Location     Type
  7935 ;;		None
  7936 ;; Auto vars:     Size  Location     Type
  7937 ;;		None
  7938 ;; Return value:  Size  Location     Type
  7939 ;;		None               void
  7940 ;; Registers used:
  7941 ;;		wreg
  7942 ;; Tracked objects:
  7943 ;;		On entry : 0/0
  7944 ;;		On exit  : 0/0
  7945 ;;		Unchanged: 0/0
  7946 ;; Data sizes:     COMMON   BANK0   BANK1   BANK3   BANK2
  7947 ;;      Params:         0       0       0       0       0
  7948 ;;      Locals:         0       0       0       0       0
  7949 ;;      Temps:          0       1       0       0       0
  7950 ;;      Totals:         0       1       0       0       0
  7951 ;;Total ram usage:        1 bytes
  7952 ;; Hardware stack levels used:    1
  7953 ;; Hardware stack levels required when called:    3
  7954 ;; This function calls:
  7955 ;;		Nothing
  7956 ;; This function is called by:
  7957 ;;		_main
  7958 ;; This function uses a non-reentrant model
  7959 ;;
  7960                           psect	text915
  7961                           	file	"F:\PiROOT_Tech\student_projects\AutomaticRationCardSystem\softuart.c"
  7962                           	line	10
  7963                           	global	__size_of_SoftWareUart_Init
  7964  0011                     	__size_of_SoftWareUart_Init	equ	__end_of_SoftWareUart_Init-_SoftWareUart_Init
  7965                           	
  7966  1378                     _SoftWareUart_Init:	
  7967                           	opt	stack 4
  7968                           ; Regs used in _SoftWareUart_Init: [wreg]
  7969                           	line	11
  7970                           	
  7971  1378                     l4492:	
  7972                           ;softuart.c: 11: RD1=1;
  7973  1378  1283               	bcf	status, 5	;RP0=0, select bank0
  7974  1379  1303               	bcf	status, 6	;RP1=0, select bank0
  7975  137A  1488               	bsf	(65/8),(65)&7
  7976                           	line	12
  7977                           ;softuart.c: 12: RD0=1;
  7978  137B  1408               	bsf	(64/8),(64)&7
  7979                           	line	13
  7980                           ;softuart.c: 13: TRISD1=0;
  7981  137C  1683               	bsf	status, 5	;RP0=1, select bank1
  7982  137D  1303               	bcf	status, 6	;RP1=0, select bank1
  7983  137E  1088               	bcf	(1089/8)^080h,(1089)&7
  7984                           	line	14
  7985                           ;softuart.c: 14: TRISD0=1;
  7986  137F  1408               	bsf	(1088/8)^080h,(1088)&7
  7987                           	line	15
  7988                           ;softuart.c: 15: RD1=1;
  7989  1380  1283               	bcf	status, 5	;RP0=0, select bank0
  7990  1381  1303               	bcf	status, 6	;RP1=0, select bank0
  7991  1382  1488               	bsf	(65/8),(65)&7
  7992                           	line	16
  7993                           	
  7994  1383                     l4494:	
  7995                           ;softuart.c: 16: _delay((unsigned long)((((1000000/9600)-2))*(20000000/4000000.0)));
  7996                           	opt asmopt_off
  7997  1383  30A9               movlw	169
  7998  1384  00C8               movwf	(??_SoftWareUart_Init+0)+0,f
  7999  1385                     u4067:
  8000  1385  0BC8               decfsz	(??_SoftWareUart_Init+0)+0,f
  8001  1386  2B85               	goto	u4067
  8002  1387  2B88               	nop2	;nop
  8003                           opt asmopt_on
  8004                           
  8005                           	line	17
  8006                           	
  8007  1388                     l989:	
  8008  1388  0008               	return
  8009                           	opt stack 0
  8010                           GLOBAL	__end_of_SoftWareUart_Init
  8011  1389                     	__end_of_SoftWareUart_Init:
  8012 ;; =============== function _SoftWareUart_Init ends ============
  8013                           
  8014                           	signat	_SoftWareUart_Init,88
  8015                           	global	_enable
  8016                           psect	text916,local,class=CODE,delta=2
  8017                           global __ptext916
  8018  1368                     __ptext916:
  8019                           
  8020 ;; *************** function _enable *****************
  8021 ;; Defined at:
  8022 ;;		line 9 in file "F:\PiROOT_Tech\student_projects\AutomaticRationCardSystem\lcd.c"
  8023 ;; Parameters:    Size  Location     Type
  8024 ;;		None
  8025 ;; Auto vars:     Size  Location     Type
  8026 ;;		None
  8027 ;; Return value:  Size  Location     Type
  8028 ;;                  2  950[COMMON] int 
  8029 ;; Registers used:
  8030 ;;		wreg
  8031 ;; Tracked objects:
  8032 ;;		On entry : 0/0
  8033 ;;		On exit  : 0/0
  8034 ;;		Unchanged: 0/0
  8035 ;; Data sizes:     COMMON   BANK0   BANK1   BANK3   BANK2
  8036 ;;      Params:         0       0       0       0       0
  8037 ;;      Locals:         0       0       0       0       0
  8038 ;;      Temps:          0       2       0       0       0
  8039 ;;      Totals:         0       2       0       0       0
  8040 ;;Total ram usage:        2 bytes
  8041 ;; Hardware stack levels used:    1
  8042 ;; Hardware stack levels required when called:    3
  8043 ;; This function calls:
  8044 ;;		Nothing
  8045 ;; This function is called by:
  8046 ;;		_lcdcmd
  8047 ;;		_lcddata
  8048 ;; This function uses a non-reentrant model
  8049 ;;
  8050                           psect	text916
  8051                           	file	"F:\PiROOT_Tech\student_projects\AutomaticRationCardSystem\lcd.c"
  8052                           	line	9
  8053                           	global	__size_of_enable
  8054  0010                     	__size_of_enable	equ	__end_of_enable-_enable
  8055                           	
  8056  1368                     _enable:	
  8057                           	opt	stack 1
  8058                           ; Regs used in _enable: [wreg]
  8059                           	line	10
  8060                           	
  8061  1368                     l4486:	
  8062                           ;lcd.c: 10: RD3 = 1;
  8063  1368  1283               	bcf	status, 5	;RP0=0, select bank0
  8064  1369  1303               	bcf	status, 6	;RP1=0, select bank0
  8065  136A  1588               	bsf	(67/8),(67)&7
  8066                           	line	11
  8067                           	
  8068  136B                     l4488:	
  8069                           ;lcd.c: 11: _delay((unsigned long)((4)*(20000000/4000.0)));
  8070                           	opt asmopt_off
  8071  136B  301A               movlw	26
  8072  136C  00C9               movwf	((??_enable+0)+0+1),f
  8073  136D  30F8               	movlw	248
  8074  136E  00C8               movwf	((??_enable+0)+0),f
  8075  136F                     u4077:
  8076  136F  0BC8               	decfsz	((??_enable+0)+0),f
  8077  1370  2B6F               	goto	u4077
  8078  1371  0BC9               	decfsz	((??_enable+0)+0+1),f
  8079  1372  2B6F               	goto	u4077
  8080  1373  0064               	clrwdt
  8081                           opt asmopt_on
  8082                           
  8083                           	line	12
  8084                           	
  8085  1374                     l4490:	
  8086                           ;lcd.c: 12: RD3 = 0;
  8087  1374  1283               	bcf	status, 5	;RP0=0, select bank0
  8088  1375  1303               	bcf	status, 6	;RP1=0, select bank0
  8089  1376  1188               	bcf	(67/8),(67)&7
  8090                           	line	13
  8091                           	
  8092  1377                     l951:	
  8093  1377  0008               	return
  8094                           	opt stack 0
  8095                           GLOBAL	__end_of_enable
  8096  1378                     	__end_of_enable:
  8097 ;; =============== function _enable ends ============
  8098                           
  8099                           	signat	_enable,90
  8100                           	global	_DelayS
  8101                           psect	text917,local,class=CODE,delta=2
  8102                           global __ptext917
  8103  1411                     __ptext917:
  8104                           
  8105 ;; *************** function _DelayS *****************
  8106 ;; Defined at:
  8107 ;;		line 75 in file "F:\PiROOT_Tech\student_projects\AutomaticRationCardSystem\Delay.c"
  8108 ;; Parameters:    Size  Location     Type
  8109 ;;  cnt             1    wreg     unsigned char 
  8110 ;; Auto vars:     Size  Location     Type
  8111 ;;  cnt             1    4[BANK0 ] unsigned char 
  8112 ;;  i               1    5[BANK0 ] unsigned char 
  8113 ;; Return value:  Size  Location     Type
  8114 ;;		None               void
  8115 ;; Registers used:
  8116 ;;		wreg, status,2, status,0, pclath, cstack
  8117 ;; Tracked objects:
  8118 ;;		On entry : 0/0
  8119 ;;		On exit  : 0/0
  8120 ;;		Unchanged: 0/0
  8121 ;; Data sizes:     COMMON   BANK0   BANK1   BANK3   BANK2
  8122 ;;      Params:         0       0       0       0       0
  8123 ;;      Locals:         0       2       0       0       0
  8124 ;;      Temps:          0       1       0       0       0
  8125 ;;      Totals:         0       3       0       0       0
  8126 ;;Total ram usage:        3 bytes
  8127 ;; Hardware stack levels used:    1
  8128 ;; Hardware stack levels required when called:    4
  8129 ;; This function calls:
  8130 ;;		_DelayMs
  8131 ;; This function is called by:
  8132 ;;		_gsm_init
  8133 ;; This function uses a non-reentrant model
  8134 ;;
  8135                           psect	text917
  8136                           	file	"F:\PiROOT_Tech\student_projects\AutomaticRationCardSystem\Delay.c"
  8137                           	line	75
  8138                           	global	__size_of_DelayS
  8139  0020                     	__size_of_DelayS	equ	__end_of_DelayS-_DelayS
  8140                           	
  8141  1411                     _DelayS:	
  8142                           	opt	stack 2
  8143                           ; Regs used in _DelayS: [wreg+status,2+status,0+pclath+cstack]
  8144                           ;DelayS@cnt stored from wreg
  8145  1411  1283               	bcf	status, 5	;RP0=0, select bank0
  8146  1412  1303               	bcf	status, 6	;RP1=0, select bank0
  8147  1413  00CC               	movwf	(DelayS@cnt)
  8148                           	line	77
  8149                           ;Delay.c: 76: unsigned char i;
  8150                           ;Delay.c: 77: do {
  8151                           	
  8152  1414                     l944:	
  8153                           	line	78
  8154                           	
  8155  1414                     l4476:	
  8156                           ;Delay.c: 78: i = 4;
  8157  1414  3004               	movlw	(04h)
  8158  1415  00CB               	movwf	(??_DelayS+0)+0
  8159  1416  084B               	movf	(??_DelayS+0)+0,w
  8160  1417  00CD               	movwf	(DelayS@i)
  8161  1418  2C19               	goto	l4478
  8162                           	line	79
  8163                           ;Delay.c: 79: do {
  8164                           	
  8165  1419                     l945:	
  8166                           	line	80
  8167                           	
  8168  1419                     l4478:	
  8169                           ;Delay.c: 80: DelayMs(250);
  8170  1419  30FA               	movlw	(0FAh)
  8171  141A  160A  118A  23F1   	fcall	_DelayMs
              160A  118A         
  8172                           	line	81
  8173                           	
  8174  141F                     l4480:	
  8175                           # 81 "F:\PiROOT_Tech\student_projects\AutomaticRationCardSystem\Delay.c"
  8176  141F  0064               clrwdt ;#
  8177                           psect	text917
  8178                           	line	82
  8179                           	
  8180  1420                     l4482:	
  8181                           ;Delay.c: 82: } while(--i);
  8182  1420  3001               	movlw	low(01h)
  8183  1421  1283               	bcf	status, 5	;RP0=0, select bank0
  8184  1422  1303               	bcf	status, 6	;RP1=0, select bank0
  8185  1423  02CD               	subwf	(DelayS@i),f
  8186  1424  1D03               	btfss	status,2
  8187  1425  2C27               	goto	u3571
  8188  1426  2C28               	goto	u3570
  8189  1427                     u3571:
  8190  1427  2C19               	goto	l4478
  8191  1428                     u3570:
  8192  1428  2C29               	goto	l4484
  8193                           	
  8194  1429                     l946:	
  8195                           	line	83
  8196                           	
  8197  1429                     l4484:	
  8198                           ;Delay.c: 83: } while(--cnt);
  8199  1429  3001               	movlw	low(01h)
  8200  142A  02CC               	subwf	(DelayS@cnt),f
  8201  142B  1D03               	btfss	status,2
  8202  142C  2C2E               	goto	u3581
  8203  142D  2C2F               	goto	u3580
  8204  142E                     u3581:
  8205  142E  2C14               	goto	l944
  8206  142F                     u3580:
  8207  142F  2C30               	goto	l948
  8208                           	
  8209  1430                     l947:	
  8210                           	line	84
  8211                           	
  8212  1430                     l948:	
  8213  1430  0008               	return
  8214                           	opt stack 0
  8215                           GLOBAL	__end_of_DelayS
  8216  1431                     	__end_of_DelayS:
  8217 ;; =============== function _DelayS ends ============
  8218                           
  8219                           	signat	_DelayS,4216
  8220                           	global	___awmod
  8221                           psect	text918,local,class=CODE,delta=2
  8222                           global __ptext918
  8223  09CF                     __ptext918:
  8224                           
  8225 ;; *************** function ___awmod *****************
  8226 ;; Defined at:
  8227 ;;		line 5 in file "C:\Program Files (x86)\HI-TECH Software\PICC\9.80\sources\awmod.c"
  8228 ;; Parameters:    Size  Location     Type
  8229 ;;  divisor         2    0[BANK0 ] int 
  8230 ;;  dividend        2    2[BANK0 ] int 
  8231 ;; Auto vars:     Size  Location     Type
  8232 ;;  sign            1    6[BANK0 ] unsigned char 
  8233 ;;  counter         1    5[BANK0 ] unsigned char 
  8234 ;; Return value:  Size  Location     Type
  8235 ;;                  2    0[BANK0 ] int 
  8236 ;; Registers used:
  8237 ;;		wreg, status,2, status,0
  8238 ;; Tracked objects:
  8239 ;;		On entry : 0/0
  8240 ;;		On exit  : 0/0
  8241 ;;		Unchanged: 0/0
  8242 ;; Data sizes:     COMMON   BANK0   BANK1   BANK3   BANK2
  8243 ;;      Params:         0       4       0       0       0
  8244 ;;      Locals:         0       2       0       0       0
  8245 ;;      Temps:          0       1       0       0       0
  8246 ;;      Totals:         0       7       0       0       0
  8247 ;;Total ram usage:        7 bytes
  8248 ;; Hardware stack levels used:    1
  8249 ;; Hardware stack levels required when called:    3
  8250 ;; This function calls:
  8251 ;;		Nothing
  8252 ;; This function is called by:
  8253 ;;		_DisplayAmnt
  8254 ;;		_DisplaySugar
  8255 ;;		_DisplayRise
  8256 ;;		_DisplayKerosene
  8257 ;;		_main
  8258 ;; This function uses a non-reentrant model
  8259 ;;
  8260                           psect	text918
  8261                           	file	"C:\Program Files (x86)\HI-TECH Software\PICC\9.80\sources\awmod.c"
  8262                           	line	5
  8263                           	global	__size_of___awmod
  8264  006C                     	__size_of___awmod	equ	__end_of___awmod-___awmod
  8265                           	
  8266  09CF                     ___awmod:	
  8267                           	opt	stack 2
  8268                           ; Regs used in ___awmod: [wreg+status,2+status,0]
  8269                           	line	8
  8270                           	
  8271  09CF                     l4432:	
  8272  09CF  1003               	clrc
  8273  09D0  3000               	movlw	0
  8274  09D1  1803               	btfsc	status,0
  8275  09D2  3001               	movlw	1
  8276  09D3  1283               	bcf	status, 5	;RP0=0, select bank0
  8277  09D4  1303               	bcf	status, 6	;RP1=0, select bank0
  8278  09D5  00CE               	movwf	(___awmod@sign)
  8279                           	line	9
  8280                           	
  8281  09D6                     l4434:	
  8282  09D6  1FCB               	btfss	(___awmod@dividend+1),7
  8283  09D7  29D9               	goto	u3461
  8284  09D8  29DA               	goto	u3460
  8285  09D9                     u3461:
  8286  09D9  29E3               	goto	l4438
  8287  09DA                     u3460:
  8288                           	line	10
  8289                           	
  8290  09DA                     l4436:	
  8291  09DA  09CA               	comf	(___awmod@dividend),f
  8292  09DB  09CB               	comf	(___awmod@dividend+1),f
  8293  09DC  0ACA               	incf	(___awmod@dividend),f
  8294  09DD  1903               	skipnz
  8295  09DE  0ACB               	incf	(___awmod@dividend+1),f
  8296                           	line	11
  8297  09DF  01CE               	clrf	(___awmod@sign)
  8298  09E0  1403               	bsf	status,0
  8299  09E1  0DCE               	rlf	(___awmod@sign),f
  8300  09E2  29E3               	goto	l4438
  8301                           	line	12
  8302                           	
  8303  09E3                     l1452:	
  8304                           	line	13
  8305                           	
  8306  09E3                     l4438:	
  8307  09E3  1FC9               	btfss	(___awmod@divisor+1),7
  8308  09E4  29E6               	goto	u3471
  8309  09E5  29E7               	goto	u3470
  8310  09E6                     u3471:
  8311  09E6  29ED               	goto	l4442
  8312  09E7                     u3470:
  8313                           	line	14
  8314                           	
  8315  09E7                     l4440:	
  8316  09E7  09C8               	comf	(___awmod@divisor),f
  8317  09E8  09C9               	comf	(___awmod@divisor+1),f
  8318  09E9  0AC8               	incf	(___awmod@divisor),f
  8319  09EA  1903               	skipnz
  8320  09EB  0AC9               	incf	(___awmod@divisor+1),f
  8321  09EC  29ED               	goto	l4442
  8322                           	
  8323  09ED                     l1453:	
  8324                           	line	15
  8325                           	
  8326  09ED                     l4442:	
  8327  09ED  0849               	movf	(___awmod@divisor+1),w
  8328  09EE  0448               	iorwf	(___awmod@divisor),w
  8329  09EF  1903               	skipnz
  8330  09F0  29F2               	goto	u3481
  8331  09F1  29F3               	goto	u3480
  8332  09F2                     u3481:
  8333  09F2  2A29               	goto	l4460
  8334  09F3                     u3480:
  8335                           	line	16
  8336                           	
  8337  09F3                     l4444:	
  8338  09F3  01CD               	clrf	(___awmod@counter)
  8339  09F4  1403               	bsf	status,0
  8340  09F5  0DCD               	rlf	(___awmod@counter),f
  8341                           	line	17
  8342  09F6  2A03               	goto	l4450
  8343                           	
  8344  09F7                     l1456:	
  8345                           	line	18
  8346                           	
  8347  09F7                     l4446:	
  8348  09F7  3001               	movlw	01h
  8349                           	
  8350  09F8                     u3495:
  8351  09F8  1003               	clrc
  8352  09F9  0DC8               	rlf	(___awmod@divisor),f
  8353  09FA  0DC9               	rlf	(___awmod@divisor+1),f
  8354  09FB  3EFF               	addlw	-1
  8355  09FC  1D03               	skipz
  8356  09FD  29F8               	goto	u3495
  8357                           	line	19
  8358                           	
  8359  09FE                     l4448:	
  8360  09FE  3001               	movlw	(01h)
  8361  09FF  00CC               	movwf	(??___awmod+0)+0
  8362  0A00  084C               	movf	(??___awmod+0)+0,w
  8363  0A01  07CD               	addwf	(___awmod@counter),f
  8364  0A02  2A03               	goto	l4450
  8365                           	line	20
  8366                           	
  8367  0A03                     l1455:	
  8368                           	line	17
  8369                           	
  8370  0A03                     l4450:	
  8371  0A03  1FC9               	btfss	(___awmod@divisor+1),(15)&7
  8372  0A04  2A06               	goto	u3501
  8373  0A05  2A07               	goto	u3500
  8374  0A06                     u3501:
  8375  0A06  29F7               	goto	l4446
  8376  0A07                     u3500:
  8377  0A07  2A09               	goto	l4452
  8378                           	
  8379  0A08                     l1457:	
  8380  0A08  2A09               	goto	l4452
  8381                           	line	21
  8382                           	
  8383  0A09                     l1458:	
  8384                           	line	22
  8385                           	
  8386  0A09                     l4452:	
  8387  0A09  0849               	movf	(___awmod@divisor+1),w
  8388  0A0A  024B               	subwf	(___awmod@dividend+1),w
  8389  0A0B  1D03               	skipz
  8390  0A0C  2A0F               	goto	u3515
  8391  0A0D  0848               	movf	(___awmod@divisor),w
  8392  0A0E  024A               	subwf	(___awmod@dividend),w
  8393  0A0F                     u3515:
  8394  0A0F  1C03               	skipc
  8395  0A10  2A12               	goto	u3511
  8396  0A11  2A13               	goto	u3510
  8397  0A12                     u3511:
  8398  0A12  2A1A               	goto	l4456
  8399  0A13                     u3510:
  8400                           	line	23
  8401                           	
  8402  0A13                     l4454:	
  8403  0A13  0848               	movf	(___awmod@divisor),w
  8404  0A14  02CA               	subwf	(___awmod@dividend),f
  8405  0A15  0849               	movf	(___awmod@divisor+1),w
  8406  0A16  1C03               	skipc
  8407  0A17  03CB               	decf	(___awmod@dividend+1),f
  8408  0A18  02CB               	subwf	(___awmod@dividend+1),f
  8409  0A19  2A1A               	goto	l4456
  8410                           	
  8411  0A1A                     l1459:	
  8412                           	line	24
  8413                           	
  8414  0A1A                     l4456:	
  8415  0A1A  3001               	movlw	01h
  8416                           	
  8417  0A1B                     u3525:
  8418  0A1B  1003               	clrc
  8419  0A1C  0CC9               	rrf	(___awmod@divisor+1),f
  8420  0A1D  0CC8               	rrf	(___awmod@divisor),f
  8421  0A1E  3EFF               	addlw	-1
  8422  0A1F  1D03               	skipz
  8423  0A20  2A1B               	goto	u3525
  8424                           	line	25
  8425                           	
  8426  0A21                     l4458:	
  8427  0A21  3001               	movlw	low(01h)
  8428  0A22  02CD               	subwf	(___awmod@counter),f
  8429  0A23  1D03               	btfss	status,2
  8430  0A24  2A26               	goto	u3531
  8431  0A25  2A27               	goto	u3530
  8432  0A26                     u3531:
  8433  0A26  2A09               	goto	l4452
  8434  0A27                     u3530:
  8435  0A27  2A29               	goto	l4460
  8436                           	
  8437  0A28                     l1460:	
  8438  0A28  2A29               	goto	l4460
  8439                           	line	26
  8440                           	
  8441  0A29                     l1454:	
  8442                           	line	27
  8443                           	
  8444  0A29                     l4460:	
  8445  0A29  084E               	movf	(___awmod@sign),w
  8446  0A2A  1D03               	skipz
  8447  0A2B  2A2D               	goto	u3540
  8448  0A2C  2A33               	goto	l4464
  8449  0A2D                     u3540:
  8450                           	line	28
  8451                           	
  8452  0A2D                     l4462:	
  8453  0A2D  09CA               	comf	(___awmod@dividend),f
  8454  0A2E  09CB               	comf	(___awmod@dividend+1),f
  8455  0A2F  0ACA               	incf	(___awmod@dividend),f
  8456  0A30  1903               	skipnz
  8457  0A31  0ACB               	incf	(___awmod@dividend+1),f
  8458  0A32  2A33               	goto	l4464
  8459                           	
  8460  0A33                     l1461:	
  8461                           	line	29
  8462                           	
  8463  0A33                     l4464:	
  8464  0A33  084B               	movf	(___awmod@dividend+1),w
  8465  0A34  01C9               	clrf	(?___awmod+1)
  8466  0A35  07C9               	addwf	(?___awmod+1)
  8467  0A36  084A               	movf	(___awmod@dividend),w
  8468  0A37  01C8               	clrf	(?___awmod)
  8469  0A38  07C8               	addwf	(?___awmod)
  8470                           
  8471  0A39  2A3A               	goto	l1462
  8472                           	
  8473  0A3A                     l4466:	
  8474                           	line	30
  8475                           	
  8476  0A3A                     l1462:	
  8477  0A3A  0008               	return
  8478                           	opt stack 0
  8479                           GLOBAL	__end_of___awmod
  8480  0A3B                     	__end_of___awmod:
  8481 ;; =============== function ___awmod ends ============
  8482                           
  8483                           	signat	___awmod,8314
  8484                           	global	___awdiv
  8485                           psect	text919,local,class=CODE,delta=2
  8486                           global __ptext919
  8487  0B20                     __ptext919:
  8488                           
  8489 ;; *************** function ___awdiv *****************
  8490 ;; Defined at:
  8491 ;;		line 5 in file "C:\Program Files (x86)\HI-TECH Software\PICC\9.80\sources\awdiv.c"
  8492 ;; Parameters:    Size  Location     Type
  8493 ;;  divisor         2    7[BANK0 ] int 
  8494 ;;  dividend        2    9[BANK0 ] int 
  8495 ;; Auto vars:     Size  Location     Type
  8496 ;;  quotient        2   14[BANK0 ] int 
  8497 ;;  sign            1   13[BANK0 ] unsigned char 
  8498 ;;  counter         1   12[BANK0 ] unsigned char 
  8499 ;; Return value:  Size  Location     Type
  8500 ;;                  2    7[BANK0 ] int 
  8501 ;; Registers used:
  8502 ;;		wreg, status,2, status,0
  8503 ;; Tracked objects:
  8504 ;;		On entry : 0/0
  8505 ;;		On exit  : 0/0
  8506 ;;		Unchanged: 0/0
  8507 ;; Data sizes:     COMMON   BANK0   BANK1   BANK3   BANK2
  8508 ;;      Params:         0       4       0       0       0
  8509 ;;      Locals:         0       4       0       0       0
  8510 ;;      Temps:          0       1       0       0       0
  8511 ;;      Totals:         0       9       0       0       0
  8512 ;;Total ram usage:        9 bytes
  8513 ;; Hardware stack levels used:    1
  8514 ;; Hardware stack levels required when called:    3
  8515 ;; This function calls:
  8516 ;;		Nothing
  8517 ;; This function is called by:
  8518 ;;		_DisplayAmnt
  8519 ;;		_DisplaySugar
  8520 ;;		_DisplayRise
  8521 ;;		_DisplayKerosene
  8522 ;;		_main
  8523 ;;		_DelayBigUs
  8524 ;; This function uses a non-reentrant model
  8525 ;;
  8526                           psect	text919
  8527                           	file	"C:\Program Files (x86)\HI-TECH Software\PICC\9.80\sources\awdiv.c"
  8528                           	line	5
  8529                           	global	__size_of___awdiv
  8530  007B                     	__size_of___awdiv	equ	__end_of___awdiv-___awdiv
  8531                           	
  8532  0B20                     ___awdiv:	
  8533                           	opt	stack 2
  8534                           ; Regs used in ___awdiv: [wreg+status,2+status,0]
  8535                           	line	9
  8536                           	
  8537  0B20                     l4394:	
  8538  0B20  1003               	clrc
  8539  0B21  3000               	movlw	0
  8540  0B22  1803               	btfsc	status,0
  8541  0B23  3001               	movlw	1
  8542  0B24  1283               	bcf	status, 5	;RP0=0, select bank0
  8543  0B25  1303               	bcf	status, 6	;RP1=0, select bank0
  8544  0B26  00D5               	movwf	(___awdiv@sign)
  8545                           	line	10
  8546                           	
  8547  0B27                     l4396:	
  8548  0B27  1FD0               	btfss	(___awdiv@divisor+1),7
  8549  0B28  2B2A               	goto	u3361
  8550  0B29  2B2B               	goto	u3360
  8551  0B2A                     u3361:
  8552  0B2A  2B34               	goto	l4400
  8553  0B2B                     u3360:
  8554                           	line	11
  8555                           	
  8556  0B2B                     l4398:	
  8557  0B2B  09CF               	comf	(___awdiv@divisor),f
  8558  0B2C  09D0               	comf	(___awdiv@divisor+1),f
  8559  0B2D  0ACF               	incf	(___awdiv@divisor),f
  8560  0B2E  1903               	skipnz
  8561  0B2F  0AD0               	incf	(___awdiv@divisor+1),f
  8562                           	line	12
  8563  0B30  01D5               	clrf	(___awdiv@sign)
  8564  0B31  1403               	bsf	status,0
  8565  0B32  0DD5               	rlf	(___awdiv@sign),f
  8566  0B33  2B34               	goto	l4400
  8567                           	line	13
  8568                           	
  8569  0B34                     l1384:	
  8570                           	line	14
  8571                           	
  8572  0B34                     l4400:	
  8573  0B34  1FD2               	btfss	(___awdiv@dividend+1),7
  8574  0B35  2B37               	goto	u3371
  8575  0B36  2B38               	goto	u3370
  8576  0B37                     u3371:
  8577  0B37  2B41               	goto	l1385
  8578  0B38                     u3370:
  8579                           	line	15
  8580                           	
  8581  0B38                     l4402:	
  8582  0B38  09D1               	comf	(___awdiv@dividend),f
  8583  0B39  09D2               	comf	(___awdiv@dividend+1),f
  8584  0B3A  0AD1               	incf	(___awdiv@dividend),f
  8585  0B3B  1903               	skipnz
  8586  0B3C  0AD2               	incf	(___awdiv@dividend+1),f
  8587                           	line	16
  8588                           	
  8589  0B3D                     l4404:	
  8590  0B3D  3001               	movlw	(01h)
  8591  0B3E  00D3               	movwf	(??___awdiv+0)+0
  8592  0B3F  0853               	movf	(??___awdiv+0)+0,w
  8593  0B40  06D5               	xorwf	(___awdiv@sign),f
  8594                           	line	17
  8595                           	
  8596  0B41                     l1385:	
  8597                           	line	18
  8598  0B41  3000               	movlw	low(0)
  8599  0B42  00D6               	movwf	(___awdiv@quotient)
  8600  0B43  3000               	movlw	high(0)
  8601  0B44  00D7               	movwf	((___awdiv@quotient))+1
  8602                           	line	19
  8603  0B45  0850               	movf	(___awdiv@divisor+1),w
  8604  0B46  044F               	iorwf	(___awdiv@divisor),w
  8605  0B47  1903               	skipnz
  8606  0B48  2B4A               	goto	u3381
  8607  0B49  2B4B               	goto	u3380
  8608  0B4A                     u3381:
  8609  0B4A  2B89               	goto	l4424
  8610  0B4B                     u3380:
  8611                           	line	20
  8612                           	
  8613  0B4B                     l4406:	
  8614  0B4B  01D4               	clrf	(___awdiv@counter)
  8615  0B4C  1403               	bsf	status,0
  8616  0B4D  0DD4               	rlf	(___awdiv@counter),f
  8617                           	line	21
  8618  0B4E  2B5B               	goto	l4412
  8619                           	
  8620  0B4F                     l1388:	
  8621                           	line	22
  8622                           	
  8623  0B4F                     l4408:	
  8624  0B4F  3001               	movlw	01h
  8625                           	
  8626  0B50                     u3395:
  8627  0B50  1003               	clrc
  8628  0B51  0DCF               	rlf	(___awdiv@divisor),f
  8629  0B52  0DD0               	rlf	(___awdiv@divisor+1),f
  8630  0B53  3EFF               	addlw	-1
  8631  0B54  1D03               	skipz
  8632  0B55  2B50               	goto	u3395
  8633                           	line	23
  8634                           	
  8635  0B56                     l4410:	
  8636  0B56  3001               	movlw	(01h)
  8637  0B57  00D3               	movwf	(??___awdiv+0)+0
  8638  0B58  0853               	movf	(??___awdiv+0)+0,w
  8639  0B59  07D4               	addwf	(___awdiv@counter),f
  8640  0B5A  2B5B               	goto	l4412
  8641                           	line	24
  8642                           	
  8643  0B5B                     l1387:	
  8644                           	line	21
  8645                           	
  8646  0B5B                     l4412:	
  8647  0B5B  1FD0               	btfss	(___awdiv@divisor+1),(15)&7
  8648  0B5C  2B5E               	goto	u3401
  8649  0B5D  2B5F               	goto	u3400
  8650  0B5E                     u3401:
  8651  0B5E  2B4F               	goto	l4408
  8652  0B5F                     u3400:
  8653  0B5F  2B61               	goto	l4414
  8654                           	
  8655  0B60                     l1389:	
  8656  0B60  2B61               	goto	l4414
  8657                           	line	25
  8658                           	
  8659  0B61                     l1390:	
  8660                           	line	26
  8661                           	
  8662  0B61                     l4414:	
  8663  0B61  3001               	movlw	01h
  8664                           	
  8665  0B62                     u3415:
  8666  0B62  1003               	clrc
  8667  0B63  0DD6               	rlf	(___awdiv@quotient),f
  8668  0B64  0DD7               	rlf	(___awdiv@quotient+1),f
  8669  0B65  3EFF               	addlw	-1
  8670  0B66  1D03               	skipz
  8671  0B67  2B62               	goto	u3415
  8672                           	line	27
  8673  0B68  0850               	movf	(___awdiv@divisor+1),w
  8674  0B69  0252               	subwf	(___awdiv@dividend+1),w
  8675  0B6A  1D03               	skipz
  8676  0B6B  2B6E               	goto	u3425
  8677  0B6C  084F               	movf	(___awdiv@divisor),w
  8678  0B6D  0251               	subwf	(___awdiv@dividend),w
  8679  0B6E                     u3425:
  8680  0B6E  1C03               	skipc
  8681  0B6F  2B71               	goto	u3421
  8682  0B70  2B72               	goto	u3420
  8683  0B71                     u3421:
  8684  0B71  2B7A               	goto	l4420
  8685  0B72                     u3420:
  8686                           	line	28
  8687                           	
  8688  0B72                     l4416:	
  8689  0B72  084F               	movf	(___awdiv@divisor),w
  8690  0B73  02D1               	subwf	(___awdiv@dividend),f
  8691  0B74  0850               	movf	(___awdiv@divisor+1),w
  8692  0B75  1C03               	skipc
  8693  0B76  03D2               	decf	(___awdiv@dividend+1),f
  8694  0B77  02D2               	subwf	(___awdiv@dividend+1),f
  8695                           	line	29
  8696                           	
  8697  0B78                     l4418:	
  8698  0B78  1456               	bsf	(___awdiv@quotient)+(0/8),(0)&7
  8699  0B79  2B7A               	goto	l4420
  8700                           	line	30
  8701                           	
  8702  0B7A                     l1391:	
  8703                           	line	31
  8704                           	
  8705  0B7A                     l4420:	
  8706  0B7A  3001               	movlw	01h
  8707                           	
  8708  0B7B                     u3435:
  8709  0B7B  1003               	clrc
  8710  0B7C  0CD0               	rrf	(___awdiv@divisor+1),f
  8711  0B7D  0CCF               	rrf	(___awdiv@divisor),f
  8712  0B7E  3EFF               	addlw	-1
  8713  0B7F  1D03               	skipz
  8714  0B80  2B7B               	goto	u3435
  8715                           	line	32
  8716                           	
  8717  0B81                     l4422:	
  8718  0B81  3001               	movlw	low(01h)
  8719  0B82  02D4               	subwf	(___awdiv@counter),f
  8720  0B83  1D03               	btfss	status,2
  8721  0B84  2B86               	goto	u3441
  8722  0B85  2B87               	goto	u3440
  8723  0B86                     u3441:
  8724  0B86  2B61               	goto	l4414
  8725  0B87                     u3440:
  8726  0B87  2B89               	goto	l4424
  8727                           	
  8728  0B88                     l1392:	
  8729  0B88  2B89               	goto	l4424
  8730                           	line	33
  8731                           	
  8732  0B89                     l1386:	
  8733                           	line	34
  8734                           	
  8735  0B89                     l4424:	
  8736  0B89  0855               	movf	(___awdiv@sign),w
  8737  0B8A  1D03               	skipz
  8738  0B8B  2B8D               	goto	u3450
  8739  0B8C  2B93               	goto	l4428
  8740  0B8D                     u3450:
  8741                           	line	35
  8742                           	
  8743  0B8D                     l4426:	
  8744  0B8D  09D6               	comf	(___awdiv@quotient),f
  8745  0B8E  09D7               	comf	(___awdiv@quotient+1),f
  8746  0B8F  0AD6               	incf	(___awdiv@quotient),f
  8747  0B90  1903               	skipnz
  8748  0B91  0AD7               	incf	(___awdiv@quotient+1),f
  8749  0B92  2B93               	goto	l4428
  8750                           	
  8751  0B93                     l1393:	
  8752                           	line	36
  8753                           	
  8754  0B93                     l4428:	
  8755  0B93  0857               	movf	(___awdiv@quotient+1),w
  8756  0B94  01D0               	clrf	(?___awdiv+1)
  8757  0B95  07D0               	addwf	(?___awdiv+1)
  8758  0B96  0856               	movf	(___awdiv@quotient),w
  8759  0B97  01CF               	clrf	(?___awdiv)
  8760  0B98  07CF               	addwf	(?___awdiv)
  8761                           
  8762  0B99  2B9A               	goto	l1394
  8763                           	
  8764  0B9A                     l4430:	
  8765                           	line	37
  8766                           	
  8767  0B9A                     l1394:	
  8768  0B9A  0008               	return
  8769                           	opt stack 0
  8770                           GLOBAL	__end_of___awdiv
  8771  0B9B                     	__end_of___awdiv:
  8772 ;; =============== function ___awdiv ends ============
  8773                           
  8774                           	signat	___awdiv,8314
  8775                           	global	___lwmod
  8776                           psect	text920,local,class=CODE,delta=2
  8777                           global __ptext920
  8778  16CD                     __ptext920:
  8779                           
  8780 ;; *************** function ___lwmod *****************
  8781 ;; Defined at:
  8782 ;;		line 5 in file "C:\Program Files (x86)\HI-TECH Software\PICC\9.80\sources\lwmod.c"
  8783 ;; Parameters:    Size  Location     Type
  8784 ;;  divisor         2    0[BANK0 ] unsigned int 
  8785 ;;  dividend        2    2[BANK0 ] unsigned int 
  8786 ;; Auto vars:     Size  Location     Type
  8787 ;;  counter         1    5[BANK0 ] unsigned char 
  8788 ;; Return value:  Size  Location     Type
  8789 ;;                  2    0[BANK0 ] unsigned int 
  8790 ;; Registers used:
  8791 ;;		wreg, status,2, status,0
  8792 ;; Tracked objects:
  8793 ;;		On entry : 0/0
  8794 ;;		On exit  : 0/0
  8795 ;;		Unchanged: 0/0
  8796 ;; Data sizes:     COMMON   BANK0   BANK1   BANK3   BANK2
  8797 ;;      Params:         0       4       0       0       0
  8798 ;;      Locals:         0       1       0       0       0
  8799 ;;      Temps:          0       1       0       0       0
  8800 ;;      Totals:         0       6       0       0       0
  8801 ;;Total ram usage:        6 bytes
  8802 ;; Hardware stack levels used:    1
  8803 ;; Hardware stack levels required when called:    3
  8804 ;; This function calls:
  8805 ;;		Nothing
  8806 ;; This function is called by:
  8807 ;;		_LoadStockToArray
  8808 ;;		_main
  8809 ;; This function uses a non-reentrant model
  8810 ;;
  8811                           psect	text920
  8812                           	file	"C:\Program Files (x86)\HI-TECH Software\PICC\9.80\sources\lwmod.c"
  8813                           	line	5
  8814                           	global	__size_of___lwmod
  8815  0046                     	__size_of___lwmod	equ	__end_of___lwmod-___lwmod
  8816                           	
  8817  16CD                     ___lwmod:	
  8818                           	opt	stack 3
  8819                           ; Regs used in ___lwmod: [wreg+status,2+status,0]
  8820                           	line	8
  8821                           	
  8822  16CD                     l4372:	
  8823  16CD  1283               	bcf	status, 5	;RP0=0, select bank0
  8824  16CE  1303               	bcf	status, 6	;RP1=0, select bank0
  8825  16CF  0849               	movf	(___lwmod@divisor+1),w
  8826  16D0  0448               	iorwf	(___lwmod@divisor),w
  8827  16D1  1903               	skipnz
  8828  16D2  2ED4               	goto	u3301
  8829  16D3  2ED5               	goto	u3300
  8830  16D4                     u3301:
  8831  16D4  2F0B               	goto	l4390
  8832  16D5                     u3300:
  8833                           	line	9
  8834                           	
  8835  16D5                     l4374:	
  8836  16D5  01CD               	clrf	(___lwmod@counter)
  8837  16D6  1403               	bsf	status,0
  8838  16D7  0DCD               	rlf	(___lwmod@counter),f
  8839                           	line	10
  8840  16D8  2EE5               	goto	l4380
  8841                           	
  8842  16D9                     l1262:	
  8843                           	line	11
  8844                           	
  8845  16D9                     l4376:	
  8846  16D9  3001               	movlw	01h
  8847                           	
  8848  16DA                     u3315:
  8849  16DA  1003               	clrc
  8850  16DB  0DC8               	rlf	(___lwmod@divisor),f
  8851  16DC  0DC9               	rlf	(___lwmod@divisor+1),f
  8852  16DD  3EFF               	addlw	-1
  8853  16DE  1D03               	skipz
  8854  16DF  2EDA               	goto	u3315
  8855                           	line	12
  8856                           	
  8857  16E0                     l4378:	
  8858  16E0  3001               	movlw	(01h)
  8859  16E1  00CC               	movwf	(??___lwmod+0)+0
  8860  16E2  084C               	movf	(??___lwmod+0)+0,w
  8861  16E3  07CD               	addwf	(___lwmod@counter),f
  8862  16E4  2EE5               	goto	l4380
  8863                           	line	13
  8864                           	
  8865  16E5                     l1261:	
  8866                           	line	10
  8867                           	
  8868  16E5                     l4380:	
  8869  16E5  1FC9               	btfss	(___lwmod@divisor+1),(15)&7
  8870  16E6  2EE8               	goto	u3321
  8871  16E7  2EE9               	goto	u3320
  8872  16E8                     u3321:
  8873  16E8  2ED9               	goto	l4376
  8874  16E9                     u3320:
  8875  16E9  2EEB               	goto	l4382
  8876                           	
  8877  16EA                     l1263:	
  8878  16EA  2EEB               	goto	l4382
  8879                           	line	14
  8880                           	
  8881  16EB                     l1264:	
  8882                           	line	15
  8883                           	
  8884  16EB                     l4382:	
  8885  16EB  0849               	movf	(___lwmod@divisor+1),w
  8886  16EC  024B               	subwf	(___lwmod@dividend+1),w
  8887  16ED  1D03               	skipz
  8888  16EE  2EF1               	goto	u3335
  8889  16EF  0848               	movf	(___lwmod@divisor),w
  8890  16F0  024A               	subwf	(___lwmod@dividend),w
  8891  16F1                     u3335:
  8892  16F1  1C03               	skipc
  8893  16F2  2EF4               	goto	u3331
  8894  16F3  2EF5               	goto	u3330
  8895  16F4                     u3331:
  8896  16F4  2EFC               	goto	l4386
  8897  16F5                     u3330:
  8898                           	line	16
  8899                           	
  8900  16F5                     l4384:	
  8901  16F5  0848               	movf	(___lwmod@divisor),w
  8902  16F6  02CA               	subwf	(___lwmod@dividend),f
  8903  16F7  0849               	movf	(___lwmod@divisor+1),w
  8904  16F8  1C03               	skipc
  8905  16F9  03CB               	decf	(___lwmod@dividend+1),f
  8906  16FA  02CB               	subwf	(___lwmod@dividend+1),f
  8907  16FB  2EFC               	goto	l4386
  8908                           	
  8909  16FC                     l1265:	
  8910                           	line	17
  8911                           	
  8912  16FC                     l4386:	
  8913  16FC  3001               	movlw	01h
  8914                           	
  8915  16FD                     u3345:
  8916  16FD  1003               	clrc
  8917  16FE  0CC9               	rrf	(___lwmod@divisor+1),f
  8918  16FF  0CC8               	rrf	(___lwmod@divisor),f
  8919  1700  3EFF               	addlw	-1
  8920  1701  1D03               	skipz
  8921  1702  2EFD               	goto	u3345
  8922                           	line	18
  8923                           	
  8924  1703                     l4388:	
  8925  1703  3001               	movlw	low(01h)
  8926  1704  02CD               	subwf	(___lwmod@counter),f
  8927  1705  1D03               	btfss	status,2
  8928  1706  2F08               	goto	u3351
  8929  1707  2F09               	goto	u3350
  8930  1708                     u3351:
  8931  1708  2EEB               	goto	l4382
  8932  1709                     u3350:
  8933  1709  2F0B               	goto	l4390
  8934                           	
  8935  170A                     l1266:	
  8936  170A  2F0B               	goto	l4390
  8937                           	line	19
  8938                           	
  8939  170B                     l1260:	
  8940                           	line	20
  8941                           	
  8942  170B                     l4390:	
  8943  170B  084B               	movf	(___lwmod@dividend+1),w
  8944  170C  01C9               	clrf	(?___lwmod+1)
  8945  170D  07C9               	addwf	(?___lwmod+1)
  8946  170E  084A               	movf	(___lwmod@dividend),w
  8947  170F  01C8               	clrf	(?___lwmod)
  8948  1710  07C8               	addwf	(?___lwmod)
  8949                           
  8950  1711  2F12               	goto	l1267
  8951                           	
  8952  1712                     l4392:	
  8953                           	line	21
  8954                           	
  8955  1712                     l1267:	
  8956  1712  0008               	return
  8957                           	opt stack 0
  8958                           GLOBAL	__end_of___lwmod
  8959  1713                     	__end_of___lwmod:
  8960 ;; =============== function ___lwmod ends ============
  8961                           
  8962                           	signat	___lwmod,8314
  8963                           	global	___lwdiv
  8964                           psect	text921,local,class=CODE,delta=2
  8965                           global __ptext921
  8966  175A                     __ptext921:
  8967                           
  8968 ;; *************** function ___lwdiv *****************
  8969 ;; Defined at:
  8970 ;;		line 5 in file "C:\Program Files (x86)\HI-TECH Software\PICC\9.80\sources\lwdiv.c"
  8971 ;; Parameters:    Size  Location     Type
  8972 ;;  divisor         2    6[BANK0 ] unsigned int 
  8973 ;;  dividend        2    8[BANK0 ] unsigned int 
  8974 ;; Auto vars:     Size  Location     Type
  8975 ;;  quotient        2   11[BANK0 ] unsigned int 
  8976 ;;  counter         1   13[BANK0 ] unsigned char 
  8977 ;; Return value:  Size  Location     Type
  8978 ;;                  2    6[BANK0 ] unsigned int 
  8979 ;; Registers used:
  8980 ;;		wreg, status,2, status,0
  8981 ;; Tracked objects:
  8982 ;;		On entry : 0/0
  8983 ;;		On exit  : 0/0
  8984 ;;		Unchanged: 0/0
  8985 ;; Data sizes:     COMMON   BANK0   BANK1   BANK3   BANK2
  8986 ;;      Params:         0       4       0       0       0
  8987 ;;      Locals:         0       3       0       0       0
  8988 ;;      Temps:          0       1       0       0       0
  8989 ;;      Totals:         0       8       0       0       0
  8990 ;;Total ram usage:        8 bytes
  8991 ;; Hardware stack levels used:    1
  8992 ;; Hardware stack levels required when called:    3
  8993 ;; This function calls:
  8994 ;;		Nothing
  8995 ;; This function is called by:
  8996 ;;		_LoadStockToArray
  8997 ;;		_main
  8998 ;; This function uses a non-reentrant model
  8999 ;;
  9000                           psect	text921
  9001                           	file	"C:\Program Files (x86)\HI-TECH Software\PICC\9.80\sources\lwdiv.c"
  9002                           	line	5
  9003                           	global	__size_of___lwdiv
  9004  0052                     	__size_of___lwdiv	equ	__end_of___lwdiv-___lwdiv
  9005                           	
  9006  175A                     ___lwdiv:	
  9007                           	opt	stack 3
  9008                           ; Regs used in ___lwdiv: [wreg+status,2+status,0]
  9009                           	line	9
  9010                           	
  9011  175A                     l4348:	
  9012  175A  3000               	movlw	low(0)
  9013  175B  1283               	bcf	status, 5	;RP0=0, select bank0
  9014  175C  1303               	bcf	status, 6	;RP1=0, select bank0
  9015  175D  00D3               	movwf	(___lwdiv@quotient)
  9016  175E  3000               	movlw	high(0)
  9017  175F  00D4               	movwf	((___lwdiv@quotient))+1
  9018                           	line	10
  9019  1760  084F               	movf	(___lwdiv@divisor+1),w
  9020  1761  044E               	iorwf	(___lwdiv@divisor),w
  9021  1762  1903               	skipnz
  9022  1763  2F65               	goto	u3231
  9023  1764  2F66               	goto	u3230
  9024  1765                     u3231:
  9025  1765  2FA4               	goto	l4368
  9026  1766                     u3230:
  9027                           	line	11
  9028                           	
  9029  1766                     l4350:	
  9030  1766  01D5               	clrf	(___lwdiv@counter)
  9031  1767  1403               	bsf	status,0
  9032  1768  0DD5               	rlf	(___lwdiv@counter),f
  9033                           	line	12
  9034  1769  2F76               	goto	l4356
  9035                           	
  9036  176A                     l1252:	
  9037                           	line	13
  9038                           	
  9039  176A                     l4352:	
  9040  176A  3001               	movlw	01h
  9041                           	
  9042  176B                     u3245:
  9043  176B  1003               	clrc
  9044  176C  0DCE               	rlf	(___lwdiv@divisor),f
  9045  176D  0DCF               	rlf	(___lwdiv@divisor+1),f
  9046  176E  3EFF               	addlw	-1
  9047  176F  1D03               	skipz
  9048  1770  2F6B               	goto	u3245
  9049                           	line	14
  9050                           	
  9051  1771                     l4354:	
  9052  1771  3001               	movlw	(01h)
  9053  1772  00D2               	movwf	(??___lwdiv+0)+0
  9054  1773  0852               	movf	(??___lwdiv+0)+0,w
  9055  1774  07D5               	addwf	(___lwdiv@counter),f
  9056  1775  2F76               	goto	l4356
  9057                           	line	15
  9058                           	
  9059  1776                     l1251:	
  9060                           	line	12
  9061                           	
  9062  1776                     l4356:	
  9063  1776  1FCF               	btfss	(___lwdiv@divisor+1),(15)&7
  9064  1777  2F79               	goto	u3251
  9065  1778  2F7A               	goto	u3250
  9066  1779                     u3251:
  9067  1779  2F6A               	goto	l4352
  9068  177A                     u3250:
  9069  177A  2F7C               	goto	l4358
  9070                           	
  9071  177B                     l1253:	
  9072  177B  2F7C               	goto	l4358
  9073                           	line	16
  9074                           	
  9075  177C                     l1254:	
  9076                           	line	17
  9077                           	
  9078  177C                     l4358:	
  9079  177C  3001               	movlw	01h
  9080                           	
  9081  177D                     u3265:
  9082  177D  1003               	clrc
  9083  177E  0DD3               	rlf	(___lwdiv@quotient),f
  9084  177F  0DD4               	rlf	(___lwdiv@quotient+1),f
  9085  1780  3EFF               	addlw	-1
  9086  1781  1D03               	skipz
  9087  1782  2F7D               	goto	u3265
  9088                           	line	18
  9089  1783  084F               	movf	(___lwdiv@divisor+1),w
  9090  1784  0251               	subwf	(___lwdiv@dividend+1),w
  9091  1785  1D03               	skipz
  9092  1786  2F89               	goto	u3275
  9093  1787  084E               	movf	(___lwdiv@divisor),w
  9094  1788  0250               	subwf	(___lwdiv@dividend),w
  9095  1789                     u3275:
  9096  1789  1C03               	skipc
  9097  178A  2F8C               	goto	u3271
  9098  178B  2F8D               	goto	u3270
  9099  178C                     u3271:
  9100  178C  2F95               	goto	l4364
  9101  178D                     u3270:
  9102                           	line	19
  9103                           	
  9104  178D                     l4360:	
  9105  178D  084E               	movf	(___lwdiv@divisor),w
  9106  178E  02D0               	subwf	(___lwdiv@dividend),f
  9107  178F  084F               	movf	(___lwdiv@divisor+1),w
  9108  1790  1C03               	skipc
  9109  1791  03D1               	decf	(___lwdiv@dividend+1),f
  9110  1792  02D1               	subwf	(___lwdiv@dividend+1),f
  9111                           	line	20
  9112                           	
  9113  1793                     l4362:	
  9114  1793  1453               	bsf	(___lwdiv@quotient)+(0/8),(0)&7
  9115  1794  2F95               	goto	l4364
  9116                           	line	21
  9117                           	
  9118  1795                     l1255:	
  9119                           	line	22
  9120                           	
  9121  1795                     l4364:	
  9122  1795  3001               	movlw	01h
  9123                           	
  9124  1796                     u3285:
  9125  1796  1003               	clrc
  9126  1797  0CCF               	rrf	(___lwdiv@divisor+1),f
  9127  1798  0CCE               	rrf	(___lwdiv@divisor),f
  9128  1799  3EFF               	addlw	-1
  9129  179A  1D03               	skipz
  9130  179B  2F96               	goto	u3285
  9131                           	line	23
  9132                           	
  9133  179C                     l4366:	
  9134  179C  3001               	movlw	low(01h)
  9135  179D  02D5               	subwf	(___lwdiv@counter),f
  9136  179E  1D03               	btfss	status,2
  9137  179F  2FA1               	goto	u3291
  9138  17A0  2FA2               	goto	u3290
  9139  17A1                     u3291:
  9140  17A1  2F7C               	goto	l4358
  9141  17A2                     u3290:
  9142  17A2  2FA4               	goto	l4368
  9143                           	
  9144  17A3                     l1256:	
  9145  17A3  2FA4               	goto	l4368
  9146                           	line	24
  9147                           	
  9148  17A4                     l1250:	
  9149                           	line	25
  9150                           	
  9151  17A4                     l4368:	
  9152  17A4  0854               	movf	(___lwdiv@quotient+1),w
  9153  17A5  01CF               	clrf	(?___lwdiv+1)
  9154  17A6  07CF               	addwf	(?___lwdiv+1)
  9155  17A7  0853               	movf	(___lwdiv@quotient),w
  9156  17A8  01CE               	clrf	(?___lwdiv)
  9157  17A9  07CE               	addwf	(?___lwdiv)
  9158                           
  9159  17AA  2FAB               	goto	l1257
  9160                           	
  9161  17AB                     l4370:	
  9162                           	line	26
  9163                           	
  9164  17AB                     l1257:	
  9165  17AB  0008               	return
  9166                           	opt stack 0
  9167                           GLOBAL	__end_of___lwdiv
  9168  17AC                     	__end_of___lwdiv:
  9169 ;; =============== function ___lwdiv ends ============
  9170                           
  9171                           	signat	___lwdiv,8314
  9172                           	global	___wmul
  9173                           psect	text922,local,class=CODE,delta=2
  9174                           global __ptext922
  9175  14FE                     __ptext922:
  9176                           
  9177 ;; *************** function ___wmul *****************
  9178 ;; Defined at:
  9179 ;;		line 3 in file "C:\Program Files (x86)\HI-TECH Software\PICC\9.80\sources\wmul.c"
  9180 ;; Parameters:    Size  Location     Type
  9181 ;;  multiplier      2    4[BANK0 ] unsigned int 
  9182 ;;  multiplicand    2    6[BANK0 ] unsigned int 
  9183 ;; Auto vars:     Size  Location     Type
  9184 ;;  product         2    8[BANK0 ] unsigned int 
  9185 ;; Return value:  Size  Location     Type
  9186 ;;                  2    4[BANK0 ] unsigned int 
  9187 ;; Registers used:
  9188 ;;		wreg, status,2, status,0
  9189 ;; Tracked objects:
  9190 ;;		On entry : 0/0
  9191 ;;		On exit  : 0/0
  9192 ;;		Unchanged: 0/0
  9193 ;; Data sizes:     COMMON   BANK0   BANK1   BANK3   BANK2
  9194 ;;      Params:         0       4       0       0       0
  9195 ;;      Locals:         0       2       0       0       0
  9196 ;;      Temps:          0       0       0       0       0
  9197 ;;      Totals:         0       6       0       0       0
  9198 ;;Total ram usage:        6 bytes
  9199 ;; Hardware stack levels used:    1
  9200 ;; Hardware stack levels required when called:    3
  9201 ;; This function calls:
  9202 ;;		Nothing
  9203 ;; This function is called by:
  9204 ;;		_ReadAmnt
  9205 ;;		_ReadStock
  9206 ;;		_paramter
  9207 ;; This function uses a non-reentrant model
  9208 ;;
  9209                           psect	text922
  9210                           	file	"C:\Program Files (x86)\HI-TECH Software\PICC\9.80\sources\wmul.c"
  9211                           	line	3
  9212                           	global	__size_of___wmul
  9213  002E                     	__size_of___wmul	equ	__end_of___wmul-___wmul
  9214                           	
  9215  14FE                     ___wmul:	
  9216                           	opt	stack 3
  9217                           ; Regs used in ___wmul: [wreg+status,2+status,0]
  9218                           	line	4
  9219                           	
  9220  14FE                     l4336:	
  9221  14FE  3000               	movlw	low(0)
  9222  14FF  1283               	bcf	status, 5	;RP0=0, select bank0
  9223  1500  1303               	bcf	status, 6	;RP1=0, select bank0
  9224  1501  00D0               	movwf	(___wmul@product)
  9225  1502  3000               	movlw	high(0)
  9226  1503  00D1               	movwf	((___wmul@product))+1
  9227  1504  2D05               	goto	l4338
  9228                           	line	6
  9229                           	
  9230  1505                     l1244:	
  9231                           	line	7
  9232                           	
  9233  1505                     l4338:	
  9234  1505  1C4C               	btfss	(___wmul@multiplier),(0)&7
  9235  1506  2D08               	goto	u3191
  9236  1507  2D09               	goto	u3190
  9237  1508                     u3191:
  9238  1508  2D0F               	goto	l1245
  9239  1509                     u3190:
  9240                           	line	8
  9241                           	
  9242  1509                     l4340:	
  9243  1509  084E               	movf	(___wmul@multiplicand),w
  9244  150A  07D0               	addwf	(___wmul@product),f
  9245  150B  1803               	skipnc
  9246  150C  0AD1               	incf	(___wmul@product+1),f
  9247  150D  084F               	movf	(___wmul@multiplicand+1),w
  9248  150E  07D1               	addwf	(___wmul@product+1),f
  9249                           	
  9250  150F                     l1245:	
  9251                           	line	9
  9252  150F  3001               	movlw	01h
  9253                           	
  9254  1510                     u3205:
  9255  1510  1003               	clrc
  9256  1511  0DCE               	rlf	(___wmul@multiplicand),f
  9257  1512  0DCF               	rlf	(___wmul@multiplicand+1),f
  9258  1513  3EFF               	addlw	-1
  9259  1514  1D03               	skipz
  9260  1515  2D10               	goto	u3205
  9261                           	line	10
  9262                           	
  9263  1516                     l4342:	
  9264  1516  3001               	movlw	01h
  9265                           	
  9266  1517                     u3215:
  9267  1517  1003               	clrc
  9268  1518  0CCD               	rrf	(___wmul@multiplier+1),f
  9269  1519  0CCC               	rrf	(___wmul@multiplier),f
  9270  151A  3EFF               	addlw	-1
  9271  151B  1D03               	skipz
  9272  151C  2D17               	goto	u3215
  9273                           	line	11
  9274  151D  084D               	movf	((___wmul@multiplier+1)),w
  9275  151E  044C               	iorwf	((___wmul@multiplier)),w
  9276  151F  1D03               	skipz
  9277  1520  2D22               	goto	u3221
  9278  1521  2D23               	goto	u3220
  9279  1522                     u3221:
  9280  1522  2D05               	goto	l4338
  9281  1523                     u3220:
  9282  1523  2D24               	goto	l4344
  9283                           	
  9284  1524                     l1246:	
  9285                           	line	12
  9286                           	
  9287  1524                     l4344:	
  9288  1524  0851               	movf	(___wmul@product+1),w
  9289  1525  01CD               	clrf	(?___wmul+1)
  9290  1526  07CD               	addwf	(?___wmul+1)
  9291  1527  0850               	movf	(___wmul@product),w
  9292  1528  01CC               	clrf	(?___wmul)
  9293  1529  07CC               	addwf	(?___wmul)
  9294                           
  9295  152A  2D2B               	goto	l1247
  9296                           	
  9297  152B                     l4346:	
  9298                           	line	13
  9299                           	
  9300  152B                     l1247:	
  9301  152B  0008               	return
  9302                           	opt stack 0
  9303                           GLOBAL	__end_of___wmul
  9304  152C                     	__end_of___wmul:
  9305 ;; =============== function ___wmul ends ============
  9306                           
  9307                           	signat	___wmul,8314
  9308                           	global	_memcmp
  9309                           psect	text923,local,class=CODE,delta=2
  9310                           global __ptext923
  9311  0915                     __ptext923:
  9312                           
  9313 ;; *************** function _memcmp *****************
  9314 ;; Defined at:
  9315 ;;		line 4 in file "C:\Program Files (x86)\HI-TECH Software\PICC\9.80\sources\memcmp.c"
  9316 ;; Parameters:    Size  Location     Type
  9317 ;;  s1              2    0[BANK0 ] PTR const void 
  9318 ;;		 -> STR_57(6), 
  9319 ;;  s2              1    2[BANK0 ] PTR const void 
  9320 ;;		 -> sms(20), 
  9321 ;;  n               2    3[BANK0 ] unsigned int 
  9322 ;; Auto vars:     Size  Location     Type
  9323 ;;		None
  9324 ;; Return value:  Size  Location     Type
  9325 ;;                  2    0[BANK0 ] int 
  9326 ;; Registers used:
  9327 ;;		wreg, fsr0l, fsr0h, status,2, status,0, btemp+1, pclath
  9328 ;; Tracked objects:
  9329 ;;		On entry : 0/0
  9330 ;;		On exit  : 0/0
  9331 ;;		Unchanged: 0/0
  9332 ;; Data sizes:     COMMON   BANK0   BANK1   BANK3   BANK2
  9333 ;;      Params:         0       5       0       0       0
  9334 ;;      Locals:         0       0       0       0       0
  9335 ;;      Temps:          0       2       0       0       0
  9336 ;;      Totals:         0       7       0       0       0
  9337 ;;Total ram usage:        7 bytes
  9338 ;; Hardware stack levels used:    1
  9339 ;; Hardware stack levels required when called:    3
  9340 ;; This function calls:
  9341 ;;		Nothing
  9342 ;; This function is called by:
  9343 ;;		_main
  9344 ;; This function uses a non-reentrant model
  9345 ;;
  9346                           psect	text923
  9347                           	file	"C:\Program Files (x86)\HI-TECH Software\PICC\9.80\sources\memcmp.c"
  9348                           	line	4
  9349                           	global	__size_of_memcmp
  9350  0056                     	__size_of_memcmp	equ	__end_of_memcmp-_memcmp
  9351                           	
  9352  0915                     _memcmp:	
  9353                           	opt	stack 4
  9354                           ; Regs used in _memcmp: [wreg-fsr0h+status,2+status,0+btemp+1+pclath]
  9355                           	line	5
  9356                           	
  9357  0915                     l4318:	
  9358  0915  2952               	goto	l4330
  9359                           	
  9360  0916                     l1224:	
  9361                           	line	6
  9362                           	
  9363  0916                     l4320:	
  9364  0916  1283               	bcf	status, 5	;RP0=0, select bank0
  9365  0917  1303               	bcf	status, 6	;RP1=0, select bank0
  9366  0918  084A               	movf	(memcmp@s2),w
  9367  0919  0084               	movwf	fsr
  9368  091A  1383               	bcf	status, 7	;select IRP bank0
  9369  091B  0800               	movf	indf,w
  9370  091C  00CD               	movwf	(??_memcmp+0)+0
  9371  091D  0849               	movf	(memcmp@s1+1),w
  9372  091E  00FF               	movwf	btemp+1
  9373  091F  0848               	movf	(memcmp@s1),w
  9374  0920  0084               	movwf	fsr0
  9375  0921  160A  158A  2000   	fcall	stringtab
              120A  158A         
  9376  0926  064D               	xorwf	(??_memcmp+0)+0,w
  9377  0927  1903               	skipnz
  9378  0928  292A               	goto	u3171
  9379  0929  292B               	goto	u3170
  9380  092A                     u3171:
  9381  092A  2947               	goto	l4326
  9382  092B                     u3170:
  9383                           	line	7
  9384                           	
  9385  092B                     l4322:	
  9386  092B  084A               	movf	(memcmp@s2),w
  9387  092C  0084               	movwf	fsr0
  9388  092D  1383               	bcf	status, 7	;select IRP bank0
  9389  092E  0800               	movf	indf,w
  9390  092F  00CD               	movwf	(??_memcmp+0)+0
  9391  0930  01CE               	clrf	(??_memcmp+0)+0+1
  9392  0931  09CD               	comf	(??_memcmp+0)+0,f
  9393  0932  09CE               	comf	(??_memcmp+0)+1,f
  9394  0933  0ACD               	incf	(??_memcmp+0)+0,f
  9395  0934  1903               	skipnz
  9396  0935  0ACE               	incf	(??_memcmp+0)+1,f
  9397  0936  0849               	movf	(memcmp@s1+1),w
  9398  0937  00FF               	movwf	btemp+1
  9399  0938  0848               	movf	(memcmp@s1),w
  9400  0939  0084               	movwf	fsr0
  9401  093A  160A  158A  2000   	fcall	stringtab
              120A  158A         
  9402  093F  074D               	addwf	0+(??_memcmp+0)+0,w
  9403  0940  00C8               	movwf	(?_memcmp)
  9404  0941  084E               	movf	1+(??_memcmp+0)+0,w
  9405  0942  1803               	skipnc
  9406  0943  0A4E               	incf	1+(??_memcmp+0)+0,w
  9407  0944  00C9               	movwf	((?_memcmp))+1
  9408  0945  296A               	goto	l1226
  9409                           	
  9410  0946                     l4324:	
  9411  0946  296A               	goto	l1226
  9412                           	
  9413  0947                     l1225:	
  9414                           	line	8
  9415                           	
  9416  0947                     l4326:	
  9417  0947  3001               	movlw	low(01h)
  9418  0948  07C8               	addwf	(memcmp@s1),f
  9419  0949  1803               	skipnc
  9420  094A  0AC9               	incf	(memcmp@s1+1),f
  9421  094B  3000               	movlw	high(01h)
  9422  094C  07C9               	addwf	(memcmp@s1+1),f
  9423                           	line	9
  9424                           	
  9425  094D                     l4328:	
  9426  094D  3001               	movlw	(01h)
  9427  094E  00CD               	movwf	(??_memcmp+0)+0
  9428  094F  084D               	movf	(??_memcmp+0)+0,w
  9429  0950  07CA               	addwf	(memcmp@s2),f
  9430  0951  2952               	goto	l4330
  9431                           	line	10
  9432                           	
  9433  0952                     l1223:	
  9434                           	line	5
  9435                           	
  9436  0952                     l4330:	
  9437  0952  3001               	movlw	low(01h)
  9438  0953  1283               	bcf	status, 5	;RP0=0, select bank0
  9439  0954  1303               	bcf	status, 6	;RP1=0, select bank0
  9440  0955  02CB               	subwf	(memcmp@n),f
  9441  0956  3000               	movlw	high(01h)
  9442  0957  1C03               	skipc
  9443  0958  03CC               	decf	(memcmp@n+1),f
  9444  0959  02CC               	subwf	(memcmp@n+1),f
  9445  095A  30FF               	movlw	high(0FFFFh)
  9446  095B  064C               	xorwf	((memcmp@n+1)),w
  9447  095C  1D03               	skipz
  9448  095D  2960               	goto	u3185
  9449  095E  30FF               	movlw	low(0FFFFh)
  9450  095F  064B               	xorwf	((memcmp@n)),w
  9451  0960                     u3185:
  9452                           
  9453  0960  1D03               	skipz
  9454  0961  2963               	goto	u3181
  9455  0962  2964               	goto	u3180
  9456  0963                     u3181:
  9457  0963  2916               	goto	l4320
  9458  0964                     u3180:
  9459  0964  2965               	goto	l4332
  9460                           	
  9461  0965                     l1227:	
  9462                           	line	11
  9463                           	
  9464  0965                     l4332:	
  9465  0965  3000               	movlw	low(0)
  9466  0966  00C8               	movwf	(?_memcmp)
  9467  0967  3000               	movlw	high(0)
  9468  0968  00C9               	movwf	((?_memcmp))+1
  9469  0969  296A               	goto	l1226
  9470                           	
  9471  096A                     l4334:	
  9472                           	line	12
  9473                           	
  9474  096A                     l1226:	
  9475  096A  0008               	return
  9476                           	opt stack 0
  9477                           GLOBAL	__end_of_memcmp
  9478  096B                     	__end_of_memcmp:
  9479 ;; =============== function _memcmp ends ============
  9480                           
  9481                           	signat	_memcmp,12410
  9482                           	global	_eeprom_write
  9483                           psect	text924,local,class=CODE,delta=2
  9484                           global __ptext924
  9485  158C                     __ptext924:
  9486                           
  9487 ;; *************** function _eeprom_write *****************
  9488 ;; Defined at:
  9489 ;;		line 8 in file "C:\Program Files (x86)\HI-TECH Software\PICC\9.80\sources\eewrite.c"
  9490 ;; Parameters:    Size  Location     Type
  9491 ;;  addr            1    wreg     unsigned char 
  9492 ;;  value           1   16[BANK0 ] unsigned char 
  9493 ;; Auto vars:     Size  Location     Type
  9494 ;;  addr            1   18[BANK0 ] unsigned char 
  9495 ;; Return value:  Size  Location     Type
  9496 ;;		None               void
  9497 ;; Registers used:
  9498 ;;		wreg, status,2, status,0
  9499 ;; Tracked objects:
  9500 ;;		On entry : 0/0
  9501 ;;		On exit  : 0/0
  9502 ;;		Unchanged: 0/0
  9503 ;; Data sizes:     COMMON   BANK0   BANK1   BANK3   BANK2
  9504 ;;      Params:         0       1       0       0       0
  9505 ;;      Locals:         0       1       0       0       0
  9506 ;;      Temps:          0       1       0       0       0
  9507 ;;      Totals:         0       3       0       0       0
  9508 ;;Total ram usage:        3 bytes
  9509 ;; Hardware stack levels used:    1
  9510 ;; Hardware stack levels required when called:    3
  9511 ;; This function calls:
  9512 ;;		Nothing
  9513 ;; This function is called by:
  9514 ;;		_main
  9515 ;; This function uses a non-reentrant model
  9516 ;;
  9517                           psect	text924
  9518                           	file	"C:\Program Files (x86)\HI-TECH Software\PICC\9.80\sources\eewrite.c"
  9519                           	line	8
  9520                           	global	__size_of_eeprom_write
  9521  003B                     	__size_of_eeprom_write	equ	__end_of_eeprom_write-_eeprom_write
  9522                           	
  9523  158C                     _eeprom_write:	
  9524                           	opt	stack 4
  9525                           ; Regs used in _eeprom_write: [wreg+status,2+status,0]
  9526                           ;eeprom_write@addr stored from wreg
  9527  158C  1283               	bcf	status, 5	;RP0=0, select bank0
  9528  158D  1303               	bcf	status, 6	;RP1=0, select bank0
  9529  158E  00DA               	movwf	(eeprom_write@addr)
  9530                           	line	9
  9531                           	
  9532  158F                     l1213:	
  9533  158F  2D90               	goto	l1214
  9534                           	
  9535  1590                     l1215:	
  9536                           	
  9537  1590                     l1214:	
  9538  1590  1683               	bsf	status, 5	;RP0=1, select bank3
  9539  1591  1703               	bsf	status, 6	;RP1=1, select bank3
  9540  1592  188C               	btfsc	(3169/8)^0180h,(3169)&7
  9541  1593  2D95               	goto	u3141
  9542  1594  2D96               	goto	u3140
  9543  1595                     u3141:
  9544  1595  2D90               	goto	l1214
  9545  1596                     u3140:
  9546  1596  2D97               	goto	l4298
  9547                           	
  9548  1597                     l1216:	
  9549                           	
  9550  1597                     l4298:	
  9551  1597  1283               	bcf	status, 5	;RP0=0, select bank0
  9552  1598  1303               	bcf	status, 6	;RP1=0, select bank0
  9553  1599  085A               	movf	(eeprom_write@addr),w
  9554  159A  1283               	bcf	status, 5	;RP0=0, select bank2
  9555  159B  1703               	bsf	status, 6	;RP1=1, select bank2
  9556  159C  008D               	movwf	(269)^0100h	;volatile
  9557  159D  1283               	bcf	status, 5	;RP0=0, select bank0
  9558  159E  1303               	bcf	status, 6	;RP1=0, select bank0
  9559  159F  0858               	movf	(eeprom_write@value),w
  9560  15A0  1283               	bcf	status, 5	;RP0=0, select bank2
  9561  15A1  1703               	bsf	status, 6	;RP1=1, select bank2
  9562  15A2  008C               	movwf	(268)^0100h	;volatile
  9563                           	
  9564  15A3                     l4300:	
  9565  15A3  303F               	movlw	(03Fh)
  9566  15A4  1283               	bcf	status, 5	;RP0=0, select bank0
  9567  15A5  1303               	bcf	status, 6	;RP1=0, select bank0
  9568  15A6  00D9               	movwf	(??_eeprom_write+0)+0
  9569  15A7  0859               	movf	(??_eeprom_write+0)+0,w
  9570  15A8  1683               	bsf	status, 5	;RP0=1, select bank3
  9571  15A9  1703               	bsf	status, 6	;RP1=1, select bank3
  9572  15AA  058C               	andwf	(396)^0180h,f	;volatile
  9573                           	
  9574  15AB                     l4302:	
  9575  15AB  1283               	bcf	status, 5	;RP0=0, select bank0
  9576  15AC  1303               	bcf	status, 6	;RP1=0, select bank0
  9577  15AD  1003               	bcf	(24/8),(24)&7
  9578                           	
  9579  15AE                     l4304:	
  9580  15AE  1F8B               	btfss	(95/8),(95)&7
  9581  15AF  2DB1               	goto	u3151
  9582  15B0  2DB2               	goto	u3150
  9583  15B1                     u3151:
  9584  15B1  2DB3               	goto	l1217
  9585  15B2                     u3150:
  9586                           	
  9587  15B2                     l4306:	
  9588  15B2  1403               	bsf	(24/8),(24)&7
  9589                           	
  9590  15B3                     l1217:	
  9591  15B3  138B               	bcf	(95/8),(95)&7
  9592  15B4  1683               	bsf	status, 5	;RP0=1, select bank3
  9593  15B5  1703               	bsf	status, 6	;RP1=1, select bank3
  9594  15B6  150C               	bsf	(3170/8)^0180h,(3170)&7
  9595                           	
  9596  15B7                     l4308:	
  9597  15B7  3055               	movlw	(055h)
  9598  15B8  008D               	movwf	(397)^0180h	;volatile
  9599  15B9  30AA               	movlw	(0AAh)
  9600  15BA  008D               	movwf	(397)^0180h	;volatile
  9601                           	
  9602  15BB                     l4310:	
  9603  15BB  148C               	bsf	(3169/8)^0180h,(3169)&7
  9604                           	
  9605  15BC                     l4312:	
  9606  15BC  110C               	bcf	(3170/8)^0180h,(3170)&7
  9607                           	
  9608  15BD                     l4314:	
  9609  15BD  1283               	bcf	status, 5	;RP0=0, select bank0
  9610  15BE  1303               	bcf	status, 6	;RP1=0, select bank0
  9611  15BF  1C03               	btfss	(24/8),(24)&7
  9612  15C0  2DC2               	goto	u3161
  9613  15C1  2DC3               	goto	u3160
  9614  15C2                     u3161:
  9615  15C2  2DC6               	goto	l1220
  9616  15C3                     u3160:
  9617                           	
  9618  15C3                     l4316:	
  9619  15C3  178B               	bsf	(95/8),(95)&7
  9620  15C4  2DC6               	goto	l1220
  9621                           	
  9622  15C5                     l1218:	
  9623  15C5  2DC6               	goto	l1220
  9624                           	
  9625  15C6                     l1219:	
  9626                           	line	10
  9627                           	
  9628  15C6                     l1220:	
  9629  15C6  0008               	return
  9630                           	opt stack 0
  9631                           GLOBAL	__end_of_eeprom_write
  9632  15C7                     	__end_of_eeprom_write:
  9633 ;; =============== function _eeprom_write ends ============
  9634                           
  9635                           	signat	_eeprom_write,8312
  9636                           	global	_strcmp
  9637                           psect	text925,local,class=CODE,delta=2
  9638                           global __ptext925
  9639  147B                     __ptext925:
  9640                           
  9641 ;; *************** function _strcmp *****************
  9642 ;; Defined at:
  9643 ;;		line 34 in file "C:\Program Files (x86)\HI-TECH Software\PICC\9.80\sources\strcmp.c"
  9644 ;; Parameters:    Size  Location     Type
  9645 ;;  s1              1    wreg     PTR const unsigned char 
  9646 ;;		 -> card_store(15), 
  9647 ;;  s2              1    0[BANK0 ] PTR const unsigned char 
  9648 ;;		 -> User3(13), User2(13), User1(13), 
  9649 ;; Auto vars:     Size  Location     Type
  9650 ;;  s1              1    5[BANK0 ] PTR const unsigned char 
  9651 ;;		 -> card_store(15), 
  9652 ;;  r               1    4[BANK0 ] char 
  9653 ;; Return value:  Size  Location     Type
  9654 ;;                  2    0[BANK0 ] int 
  9655 ;; Registers used:
  9656 ;;		wreg, fsr0l, fsr0h, status,2, status,0
  9657 ;; Tracked objects:
  9658 ;;		On entry : 0/0
  9659 ;;		On exit  : 0/0
  9660 ;;		Unchanged: 0/0
  9661 ;; Data sizes:     COMMON   BANK0   BANK1   BANK3   BANK2
  9662 ;;      Params:         0       2       0       0       0
  9663 ;;      Locals:         0       2       0       0       0
  9664 ;;      Temps:          0       2       0       0       0
  9665 ;;      Totals:         0       6       0       0       0
  9666 ;;Total ram usage:        6 bytes
  9667 ;; Hardware stack levels used:    1
  9668 ;; Hardware stack levels required when called:    3
  9669 ;; This function calls:
  9670 ;;		Nothing
  9671 ;; This function is called by:
  9672 ;;		_main
  9673 ;; This function uses a non-reentrant model
  9674 ;;
  9675                           psect	text925
  9676                           	file	"C:\Program Files (x86)\HI-TECH Software\PICC\9.80\sources\strcmp.c"
  9677                           	line	34
  9678                           	global	__size_of_strcmp
  9679  002B                     	__size_of_strcmp	equ	__end_of_strcmp-_strcmp
  9680                           	
  9681  147B                     _strcmp:	
  9682                           	opt	stack 4
  9683                           ; Regs used in _strcmp: [wreg-fsr0h+status,2+status,0]
  9684                           ;strcmp@s1 stored from wreg
  9685  147B  1283               	bcf	status, 5	;RP0=0, select bank0
  9686  147C  1303               	bcf	status, 6	;RP1=0, select bank0
  9687  147D  00CD               	movwf	(strcmp@s1)
  9688                           	line	37
  9689                           	
  9690  147E                     l4288:	
  9691  147E  2C80               	goto	l4290
  9692                           	
  9693  147F                     l1231:	
  9694                           	line	38
  9695  147F  2C80               	goto	l4290
  9696                           	
  9697  1480                     l1230:	
  9698                           	line	37
  9699                           	
  9700  1480                     l4290:	
  9701  1480  084D               	movf	(strcmp@s1),w
  9702  1481  0084               	movwf	fsr
  9703  1482  1383               	bcf	status, 7	;select IRP bank0
  9704  1483  0800               	movf	indf,w
  9705  1484  00CA               	movwf	(??_strcmp+0)+0
  9706  1485  0848               	movf	(strcmp@s2),w
  9707  1486  0084               	movwf	fsr0
  9708  1487  3001               	movlw	01h
  9709  1488  07C8               	addwf	(strcmp@s2),f
  9710  1489  0300               	decf	indf,w
  9711  148A  3AFF               	xorlw	0ffh
  9712  148B  074A               	addwf	(??_strcmp+0)+0,w
  9713  148C  00CB               	movwf	(??_strcmp+1)+0
  9714  148D  084B               	movf	(??_strcmp+1)+0,w
  9715  148E  00CC               	movwf	(strcmp@r)
  9716  148F  08CC               	movf	((strcmp@r)),f
  9717  1490  1D03               	skipz
  9718  1491  2C93               	goto	u3121
  9719  1492  2C94               	goto	u3120
  9720  1493                     u3121:
  9721  1493  2C9F               	goto	l4294
  9722  1494                     u3120:
  9723                           	
  9724  1494                     l4292:	
  9725  1494  084D               	movf	(strcmp@s1),w
  9726  1495  0084               	movwf	fsr0
  9727  1496  3001               	movlw	01h
  9728  1497  07CD               	addwf	(strcmp@s1),f
  9729  1498  0880               	movf	indf,f
  9730  1499  1D03               	skipz
  9731  149A  2C9C               	goto	u3131
  9732  149B  2C9D               	goto	u3130
  9733  149C                     u3131:
  9734  149C  2C80               	goto	l4290
  9735  149D                     u3130:
  9736  149D  2C9F               	goto	l4294
  9737                           	
  9738  149E                     l1233:	
  9739  149E  2C9F               	goto	l4294
  9740                           	
  9741  149F                     l1234:	
  9742                           	line	39
  9743                           	
  9744  149F                     l4294:	
  9745  149F  084C               	movf	(strcmp@r),w
  9746  14A0  00C8               	movwf	(?_strcmp)
  9747  14A1  01C9               	clrf	(?_strcmp+1)
  9748  14A2  1BC8               	btfsc	(?_strcmp),7
  9749  14A3  03C9               	decf	(?_strcmp+1),f
  9750  14A4  2CA5               	goto	l1235
  9751                           	
  9752  14A5                     l4296:	
  9753                           	line	40
  9754                           	
  9755  14A5                     l1235:	
  9756  14A5  0008               	return
  9757                           	opt stack 0
  9758                           GLOBAL	__end_of_strcmp
  9759  14A6                     	__end_of_strcmp:
  9760 ;; =============== function _strcmp ends ============
  9761                           
  9762                           	signat	_strcmp,8314
  9763                           	global	_uart_init
  9764                           psect	text926,local,class=CODE,delta=2
  9765                           global __ptext926
  9766  0802                     __ptext926:
  9767                           
  9768 ;; *************** function _uart_init *****************
  9769 ;; Defined at:
  9770 ;;		line 147 in file "F:\PiROOT_Tech\student_projects\AutomaticRationCardSystem\Main.c"
  9771 ;; Parameters:    Size  Location     Type
  9772 ;;		None
  9773 ;; Auto vars:     Size  Location     Type
  9774 ;;		None
  9775 ;; Return value:  Size  Location     Type
  9776 ;;		None               void
  9777 ;; Registers used:
  9778 ;;		wreg, status,2
  9779 ;; Tracked objects:
  9780 ;;		On entry : 0/0
  9781 ;;		On exit  : 0/0
  9782 ;;		Unchanged: 0/0
  9783 ;; Data sizes:     COMMON   BANK0   BANK1   BANK3   BANK2
  9784 ;;      Params:         0       0       0       0       0
  9785 ;;      Locals:         0       0       0       0       0
  9786 ;;      Temps:          0       0       0       0       0
  9787 ;;      Totals:         0       0       0       0       0
  9788 ;;Total ram usage:        0 bytes
  9789 ;; Hardware stack levels used:    1
  9790 ;; Hardware stack levels required when called:    3
  9791 ;; This function calls:
  9792 ;;		Nothing
  9793 ;; This function is called by:
  9794 ;;		_main
  9795 ;; This function uses a non-reentrant model
  9796 ;;
  9797                           psect	text926
  9798                           	file	"F:\PiROOT_Tech\student_projects\AutomaticRationCardSystem\Main.c"
  9799                           	line	147
  9800                           	global	__size_of_uart_init
  9801  0016                     	__size_of_uart_init	equ	__end_of_uart_init-_uart_init
  9802                           	
  9803  0802                     _uart_init:	
  9804                           	opt	stack 4
  9805                           ; Regs used in _uart_init: [wreg+status,2]
  9806                           	line	148
  9807                           	
  9808  0802                     l4284:	
  9809                           ;Main.c: 148: PORTC=0xFF;
  9810  0802  30FF               	movlw	(0FFh)
  9811  0803  1283               	bcf	status, 5	;RP0=0, select bank0
  9812  0804  1303               	bcf	status, 6	;RP1=0, select bank0
  9813  0805  0087               	movwf	(7)	;volatile
  9814                           	line	149
  9815                           ;Main.c: 149: TRISC=0x80;
  9816  0806  3080               	movlw	(080h)
  9817  0807  1683               	bsf	status, 5	;RP0=1, select bank1
  9818  0808  1303               	bcf	status, 6	;RP1=0, select bank1
  9819  0809  0087               	movwf	(135)^080h	;volatile
  9820                           	line	150
  9821                           ;Main.c: 150: TXSTA=0X24;
  9822  080A  3024               	movlw	(024h)
  9823  080B  0098               	movwf	(152)^080h	;volatile
  9824                           	line	151
  9825                           ;Main.c: 151: RCSTA=0X90;
  9826  080C  3090               	movlw	(090h)
  9827  080D  1283               	bcf	status, 5	;RP0=0, select bank0
  9828  080E  1303               	bcf	status, 6	;RP1=0, select bank0
  9829  080F  0098               	movwf	(24)	;volatile
  9830                           	line	152
  9831                           ;Main.c: 152: SPBRG=129;
  9832  0810  3081               	movlw	(081h)
  9833  0811  1683               	bsf	status, 5	;RP0=1, select bank1
  9834  0812  1303               	bcf	status, 6	;RP1=0, select bank1
  9835  0813  0099               	movwf	(153)^080h	;volatile
  9836                           	line	153
  9837                           	
  9838  0814                     l4286:	
  9839                           ;Main.c: 153: RCREG=0;
  9840  0814  1283               	bcf	status, 5	;RP0=0, select bank0
  9841  0815  1303               	bcf	status, 6	;RP1=0, select bank0
  9842  0816  019A               	clrf	(26)	;volatile
  9843                           	line	154
  9844                           	
  9845  0817                     l1137:	
  9846  0817  0008               	return
  9847                           	opt stack 0
  9848                           GLOBAL	__end_of_uart_init
  9849  0818                     	__end_of_uart_init:
  9850 ;; =============== function _uart_init ends ============
  9851                           
  9852                           	signat	_uart_init,88
  9853                           	global	_eeprom_read
  9854                           psect	text927,local,class=CODE,delta=2
  9855                           global __ptext927
  9856  1452                     __ptext927:
  9857                           
  9858 ;; *************** function _eeprom_read *****************
  9859 ;; Defined at:
  9860 ;;		line 8 in file "eeread.c"
  9861 ;; Parameters:    Size  Location     Type
  9862 ;;  addr            1    wreg     unsigned char 
  9863 ;; Auto vars:     Size  Location     Type
  9864 ;;  addr            1    3[BANK0 ] unsigned char 
  9865 ;; Return value:  Size  Location     Type
  9866 ;;                  1    wreg      unsigned char 
  9867 ;; Registers used:
  9868 ;;		wreg, status,2, status,0
  9869 ;; Tracked objects:
  9870 ;;		On entry : 0/0
  9871 ;;		On exit  : 0/0
  9872 ;;		Unchanged: 0/0
  9873 ;; Data sizes:     COMMON   BANK0   BANK1   BANK3   BANK2
  9874 ;;      Params:         0       0       0       0       0
  9875 ;;      Locals:         0       1       0       0       0
  9876 ;;      Temps:          0       3       0       0       0
  9877 ;;      Totals:         0       4       0       0       0
  9878 ;;Total ram usage:        4 bytes
  9879 ;; Hardware stack levels used:    1
  9880 ;; Hardware stack levels required when called:    3
  9881 ;; This function calls:
  9882 ;;		Nothing
  9883 ;; This function is called by:
  9884 ;;		_ReadAmnt
  9885 ;;		_ReadStock
  9886 ;;		_paramter
  9887 ;; This function uses a non-reentrant model
  9888 ;;
  9889                           psect	text927
  9890                           	file	"C:\Program Files (x86)\HI-TECH Software\PICC\9.80\sources\eeread.c"
  9891                           	line	8
  9892                           	global	__size_of_eeprom_read
  9893  0029                     	__size_of_eeprom_read	equ	__end_of_eeprom_read-_eeprom_read
  9894                           	
  9895  1452                     _eeprom_read:	
  9896                           	opt	stack 3
  9897                           ; Regs used in _eeprom_read: [wreg+status,2+status,0]
  9898                           ;eeprom_read@addr stored from wreg
  9899                           	line	10
  9900  1452  1283               	bcf	status, 5	;RP0=0, select bank0
  9901  1453  1303               	bcf	status, 6	;RP1=0, select bank0
  9902  1454  00CB               	movwf	(eeprom_read@addr)
  9903                           	line	9
  9904                           	
  9905  1455                     l1192:	
  9906                           	line	10
  9907                           # 10 "C:\Program Files (x86)\HI-TECH Software\PICC\9.80\sources\eeread.c"
  9908  1455  0064               clrwdt ;#
  9909                           psect	text927
  9910                           	line	11
  9911  1456  1683               	bsf	status, 5	;RP0=1, select bank3
  9912  1457  1703               	bsf	status, 6	;RP1=1, select bank3
  9913  1458  188C               	btfsc	(3169/8)^0180h,(3169)&7
  9914  1459  2C5B               	goto	u3111
  9915  145A  2C5C               	goto	u3110
  9916  145B                     u3111:
  9917  145B  2C55               	goto	l1192
  9918  145C                     u3110:
  9919  145C  2C5D               	goto	l4280
  9920                           	
  9921  145D                     l1193:	
  9922                           	line	12
  9923                           	
  9924  145D                     l4280:	
  9925  145D  1283               	bcf	status, 5	;RP0=0, select bank0
  9926  145E  1303               	bcf	status, 6	;RP1=0, select bank0
  9927  145F  084B               	movf	(eeprom_read@addr),w
  9928  1460  1283               	bcf	status, 5	;RP0=0, select bank2
  9929  1461  1703               	bsf	status, 6	;RP1=1, select bank2
  9930  1462  008D               	movwf	(269)^0100h	;volatile
  9931  1463  303F               	movlw	(03Fh)
  9932  1464  1283               	bcf	status, 5	;RP0=0, select bank0
  9933  1465  1303               	bcf	status, 6	;RP1=0, select bank0
  9934  1466  00C8               	movwf	(??_eeprom_read+0)+0
  9935  1467  0848               	movf	(??_eeprom_read+0)+0,w
  9936  1468  1683               	bsf	status, 5	;RP0=1, select bank3
  9937  1469  1703               	bsf	status, 6	;RP1=1, select bank3
  9938  146A  058C               	andwf	(396)^0180h,f	;volatile
  9939  146B  140C               	bsf	(3168/8)^0180h,(3168)&7
  9940  146C  1003               	clrc
  9941  146D  180C               	btfsc	(3168/8)^0180h,(3168)&7
  9942  146E  1403               	setc
  9943  146F  3000               	movlw	0
  9944  1470  1803               	skipnc
  9945  1471  3001               	movlw	1
  9946                           
  9947  1472  1283               	bcf	status, 5	;RP0=0, select bank0
  9948  1473  1303               	bcf	status, 6	;RP1=0, select bank0
  9949  1474  00C9               	movwf	(??_eeprom_read+1)+0
  9950  1475  01CA               	clrf	(??_eeprom_read+1)+0+1
  9951  1476  1283               	bcf	status, 5	;RP0=0, select bank2
  9952  1477  1703               	bsf	status, 6	;RP1=1, select bank2
  9953  1478  080C               	movf	(268)^0100h,w	;volatile
  9954  1479  2C7A               	goto	l1194
  9955                           	
  9956  147A                     l4282:	
  9957                           	line	13
  9958                           	
  9959  147A                     l1194:	
  9960  147A  0008               	return
  9961                           	opt stack 0
  9962                           GLOBAL	__end_of_eeprom_read
  9963  147B                     	__end_of_eeprom_read:
  9964 ;; =============== function _eeprom_read ends ============
  9965                           
  9966                           	signat	_eeprom_read,4217
  9967                           	global	_transmit
  9968                           psect	text928,local,class=CODE,delta=2
  9969                           global __ptext928
  9970  134D                     __ptext928:
  9971                           
  9972 ;; *************** function _transmit *****************
  9973 ;; Defined at:
  9974 ;;		line 8 in file "F:\PiROOT_Tech\student_projects\AutomaticRationCardSystem\UART.C"
  9975 ;; Parameters:    Size  Location     Type
  9976 ;;  data            1    wreg     unsigned char 
  9977 ;; Auto vars:     Size  Location     Type
  9978 ;;  data            1    0[BANK0 ] unsigned char 
  9979 ;; Return value:  Size  Location     Type
  9980 ;;		None               void
  9981 ;; Registers used:
  9982 ;;		wreg
  9983 ;; Tracked objects:
  9984 ;;		On entry : 0/0
  9985 ;;		On exit  : 0/0
  9986 ;;		Unchanged: 0/0
  9987 ;; Data sizes:     COMMON   BANK0   BANK1   BANK3   BANK2
  9988 ;;      Params:         0       0       0       0       0
  9989 ;;      Locals:         0       1       0       0       0
  9990 ;;      Temps:          0       0       0       0       0
  9991 ;;      Totals:         0       1       0       0       0
  9992 ;;Total ram usage:        1 bytes
  9993 ;; Hardware stack levels used:    1
  9994 ;; Hardware stack levels required when called:    3
  9995 ;; This function calls:
  9996 ;;		Nothing
  9997 ;; This function is called by:
  9998 ;;		_usartstring
  9999 ;;		_gsm_init
 10000 ;;		_SendStock
 10001 ;;		_send_moister_message2
 10002 ;;		_send_moister_message1
 10003 ;;		_send_stage1_message
 10004 ;;		_send_stage2_message
 10005 ;;		_send_stage3_message
 10006 ;; This function uses a non-reentrant model
 10007 ;;
 10008                           psect	text928
 10009                           	file	"F:\PiROOT_Tech\student_projects\AutomaticRationCardSystem\UART.C"
 10010                           	line	8
 10011                           	global	__size_of_transmit
 10012  000C                     	__size_of_transmit	equ	__end_of_transmit-_transmit
 10013                           	
 10014  134D                     _transmit:	
 10015                           	opt	stack 3
 10016                           ; Regs used in _transmit: [wreg]
 10017                           ;transmit@data stored from wreg
 10018  134D  1283               	bcf	status, 5	;RP0=0, select bank0
 10019  134E  1303               	bcf	status, 6	;RP1=0, select bank0
 10020  134F  00C8               	movwf	(transmit@data)
 10021                           	line	9
 10022                           	
 10023  1350                     l4190:	
 10024                           ;UART.C: 9: while(!TXIF);
 10025  1350  2B51               	goto	l1021
 10026                           	
 10027  1351                     l1022:	
 10028                           	
 10029  1351                     l1021:	
 10030  1351  1E0C               	btfss	(100/8),(100)&7
 10031  1352  2B54               	goto	u2961
 10032  1353  2B55               	goto	u2960
 10033  1354                     u2961:
 10034  1354  2B51               	goto	l1021
 10035  1355                     u2960:
 10036  1355  2B56               	goto	l4192
 10037                           	
 10038  1356                     l1023:	
 10039                           	line	10
 10040                           	
 10041  1356                     l4192:	
 10042                           ;UART.C: 10: TXREG =data;
 10043  1356  0848               	movf	(transmit@data),w
 10044  1357  0099               	movwf	(25)	;volatile
 10045                           	line	11
 10046                           	
 10047  1358                     l1024:	
 10048  1358  0008               	return
 10049                           	opt stack 0
 10050                           GLOBAL	__end_of_transmit
 10051  1359                     	__end_of_transmit:
 10052 ;; =============== function _transmit ends ============
 10053                           
 10054                           	signat	_transmit,4216
 10055                           	global	_receive
 10056                           psect	text929,local,class=CODE,delta=2
 10057                           global __ptext929
 10058  13AC                     __ptext929:
 10059                           
 10060 ;; *************** function _receive *****************
 10061 ;; Defined at:
 10062 ;;		line 2 in file "F:\PiROOT_Tech\student_projects\AutomaticRationCardSystem\UART.C"
 10063 ;; Parameters:    Size  Location     Type
 10064 ;;		None
 10065 ;; Auto vars:     Size  Location     Type
 10066 ;;		None
 10067 ;; Return value:  Size  Location     Type
 10068 ;;                  1    wreg      unsigned char 
 10069 ;; Registers used:
 10070 ;;		wreg
 10071 ;; Tracked objects:
 10072 ;;		On entry : 0/0
 10073 ;;		On exit  : 0/0
 10074 ;;		Unchanged: 0/0
 10075 ;; Data sizes:     COMMON   BANK0   BANK1   BANK3   BANK2
 10076 ;;      Params:         0       0       0       0       0
 10077 ;;      Locals:         0       0       0       0       0
 10078 ;;      Temps:          0       0       0       0       0
 10079 ;;      Totals:         0       0       0       0       0
 10080 ;;Total ram usage:        0 bytes
 10081 ;; Hardware stack levels used:    1
 10082 ;; Hardware stack levels required when called:    3
 10083 ;; This function calls:
 10084 ;;		Nothing
 10085 ;; This function is called by:
 10086 ;;		_gsm_init
 10087 ;;		_SendStock
 10088 ;;		_send_moister_message2
 10089 ;;		_send_moister_message1
 10090 ;;		_send_stage1_message
 10091 ;;		_send_stage2_message
 10092 ;;		_send_stage3_message
 10093 ;; This function uses a non-reentrant model
 10094 ;;
 10095                           psect	text929
 10096                           	file	"F:\PiROOT_Tech\student_projects\AutomaticRationCardSystem\UART.C"
 10097                           	line	2
 10098                           	global	__size_of_receive
 10099  0012                     	__size_of_receive	equ	__end_of_receive-_receive
 10100                           	
 10101  13AC                     _receive:	
 10102                           	opt	stack 3
 10103                           ; Regs used in _receive: [wreg]
 10104                           	line	3
 10105                           	
 10106  13AC                     l4182:	
 10107                           ;UART.C: 3: if(OERR){CREN=0;CREN=1;}
 10108  13AC  1283               	bcf	status, 5	;RP0=0, select bank0
 10109  13AD  1303               	bcf	status, 6	;RP1=0, select bank0
 10110  13AE  1C98               	btfss	(193/8),(193)&7
 10111  13AF  2BB1               	goto	u2941
 10112  13B0  2BB2               	goto	u2940
 10113  13B1                     u2941:
 10114  13B1  2BB6               	goto	l1015
 10115  13B2                     u2940:
 10116                           	
 10117  13B2                     l4184:	
 10118  13B2  1218               	bcf	(196/8),(196)&7
 10119  13B3  1618               	bsf	(196/8),(196)&7
 10120  13B4  2BB6               	goto	l1015
 10121                           	
 10122  13B5                     l1014:	
 10123                           	line	4
 10124                           ;UART.C: 4: while(!RCIF);
 10125  13B5  2BB6               	goto	l1015
 10126                           	
 10127  13B6                     l1016:	
 10128                           	
 10129  13B6                     l1015:	
 10130  13B6  1E8C               	btfss	(101/8),(101)&7
 10131  13B7  2BB9               	goto	u2951
 10132  13B8  2BBA               	goto	u2950
 10133  13B9                     u2951:
 10134  13B9  2BB6               	goto	l1015
 10135  13BA                     u2950:
 10136  13BA  2BBB               	goto	l4186
 10137                           	
 10138  13BB                     l1017:	
 10139                           	line	5
 10140                           	
 10141  13BB                     l4186:	
 10142                           ;UART.C: 5: return(RCREG);
 10143  13BB  081A               	movf	(26),w	;volatile
 10144  13BC  2BBD               	goto	l1018
 10145                           	
 10146  13BD                     l4188:	
 10147                           	line	6
 10148                           	
 10149  13BD                     l1018:	
 10150  13BD  0008               	return
 10151                           	opt stack 0
 10152                           GLOBAL	__end_of_receive
 10153  13BE                     	__end_of_receive:
 10154 ;; =============== function _receive ends ============
 10155                           
 10156                           	signat	_receive,89
 10157                           	global	_lcdport
 10158                           psect	text930,local,class=CODE,delta=2
 10159                           global __ptext930
 10160  1431                     __ptext930:
 10161                           
 10162 ;; *************** function _lcdport *****************
 10163 ;; Defined at:
 10164 ;;		line 16 in file "F:\PiROOT_Tech\student_projects\AutomaticRationCardSystem\lcd.c"
 10165 ;; Parameters:    Size  Location     Type
 10166 ;;  a               1    wreg     unsigned char 
 10167 ;; Auto vars:     Size  Location     Type
 10168 ;;  a               1    0[BANK0 ] unsigned char 
 10169 ;; Return value:  Size  Location     Type
 10170 ;;		None               void
 10171 ;; Registers used:
 10172 ;;		wreg
 10173 ;; Tracked objects:
 10174 ;;		On entry : 0/0
 10175 ;;		On exit  : 0/0
 10176 ;;		Unchanged: 0/0
 10177 ;; Data sizes:     COMMON   BANK0   BANK1   BANK3   BANK2
 10178 ;;      Params:         0       0       0       0       0
 10179 ;;      Locals:         0       1       0       0       0
 10180 ;;      Temps:          0       0       0       0       0
 10181 ;;      Totals:         0       1       0       0       0
 10182 ;;Total ram usage:        1 bytes
 10183 ;; Hardware stack levels used:    1
 10184 ;; Hardware stack levels required when called:    3
 10185 ;; This function calls:
 10186 ;;		Nothing
 10187 ;; This function is called by:
 10188 ;;		_lcdcmd
 10189 ;;		_lcddata
 10190 ;;		_lcd_init
 10191 ;; This function uses a non-reentrant model
 10192 ;;
 10193                           psect	text930
 10194                           	file	"F:\PiROOT_Tech\student_projects\AutomaticRationCardSystem\lcd.c"
 10195                           	line	16
 10196                           	global	__size_of_lcdport
 10197  0021                     	__size_of_lcdport	equ	__end_of_lcdport-_lcdport
 10198                           	
 10199  1431                     _lcdport:	
 10200                           	opt	stack 1
 10201                           ; Regs used in _lcdport: [wreg]
 10202                           ;lcdport@a stored from wreg
 10203  1431  1283               	bcf	status, 5	;RP0=0, select bank0
 10204  1432  1303               	bcf	status, 6	;RP1=0, select bank0
 10205  1433  00C8               	movwf	(lcdport@a)
 10206                           	line	17
 10207                           	
 10208  1434                     l4166:	
 10209                           ;lcd.c: 17: if(a & 1)
 10210  1434  1C48               	btfss	(lcdport@a),(0)&7
 10211  1435  2C37               	goto	u2901
 10212  1436  2C38               	goto	u2900
 10213  1437                     u2901:
 10214  1437  2C3A               	goto	l954
 10215  1438                     u2900:
 10216                           	line	18
 10217                           	
 10218  1438                     l4168:	
 10219                           ;lcd.c: 18: RD4 = 1;
 10220  1438  1608               	bsf	(68/8),(68)&7
 10221  1439  2C3B               	goto	l955
 10222                           	line	19
 10223                           	
 10224  143A                     l954:	
 10225                           	line	20
 10226                           ;lcd.c: 19: else
 10227                           ;lcd.c: 20: RD4 = 0;
 10228  143A  1208               	bcf	(68/8),(68)&7
 10229                           	
 10230  143B                     l955:	
 10231                           	line	22
 10232                           ;lcd.c: 22: if(a & 2)
 10233  143B  1CC8               	btfss	(lcdport@a),(1)&7
 10234  143C  2C3E               	goto	u2911
 10235  143D  2C3F               	goto	u2910
 10236  143E                     u2911:
 10237  143E  2C41               	goto	l956
 10238  143F                     u2910:
 10239                           	line	23
 10240                           	
 10241  143F                     l4170:	
 10242                           ;lcd.c: 23: RD5 = 1;
 10243  143F  1688               	bsf	(69/8),(69)&7
 10244  1440  2C42               	goto	l957
 10245                           	line	24
 10246                           	
 10247  1441                     l956:	
 10248                           	line	25
 10249                           ;lcd.c: 24: else
 10250                           ;lcd.c: 25: RD5 = 0;
 10251  1441  1288               	bcf	(69/8),(69)&7
 10252                           	
 10253  1442                     l957:	
 10254                           	line	27
 10255                           ;lcd.c: 27: if(a & 4)
 10256  1442  1D48               	btfss	(lcdport@a),(2)&7
 10257  1443  2C45               	goto	u2921
 10258  1444  2C46               	goto	u2920
 10259  1445                     u2921:
 10260  1445  2C48               	goto	l958
 10261  1446                     u2920:
 10262                           	line	28
 10263                           	
 10264  1446                     l4172:	
 10265                           ;lcd.c: 28: RD6 = 1;
 10266  1446  1708               	bsf	(70/8),(70)&7
 10267  1447  2C49               	goto	l959
 10268                           	line	29
 10269                           	
 10270  1448                     l958:	
 10271                           	line	30
 10272                           ;lcd.c: 29: else
 10273                           ;lcd.c: 30: RD6 = 0;
 10274  1448  1308               	bcf	(70/8),(70)&7
 10275                           	
 10276  1449                     l959:	
 10277                           	line	32
 10278                           ;lcd.c: 32: if(a & 8)
 10279  1449  1DC8               	btfss	(lcdport@a),(3)&7
 10280  144A  2C4C               	goto	u2931
 10281  144B  2C4D               	goto	u2930
 10282  144C                     u2931:
 10283  144C  2C4F               	goto	l960
 10284  144D                     u2930:
 10285                           	line	33
 10286                           	
 10287  144D                     l4174:	
 10288                           ;lcd.c: 33: RD7 = 1;
 10289  144D  1788               	bsf	(71/8),(71)&7
 10290  144E  2C51               	goto	l962
 10291                           	line	34
 10292                           	
 10293  144F                     l960:	
 10294                           	line	35
 10295                           ;lcd.c: 34: else
 10296                           ;lcd.c: 35: RD7 = 0;
 10297  144F  1388               	bcf	(71/8),(71)&7
 10298  1450  2C51               	goto	l962
 10299                           	
 10300  1451                     l961:	
 10301                           	line	36
 10302                           	
 10303  1451                     l962:	
 10304  1451  0008               	return
 10305                           	opt stack 0
 10306                           GLOBAL	__end_of_lcdport
 10307  1452                     	__end_of_lcdport:
 10308 ;; =============== function _lcdport ends ============
 10309                           
 10310                           	signat	_lcdport,4216
 10311                           	global	_DelayMs
 10312                           psect	text931,local,class=CODE,delta=2
 10313                           global __ptext931
 10314  13F1                     __ptext931:
 10315                           
 10316 ;; *************** function _DelayMs *****************
 10317 ;; Defined at:
 10318 ;;		line 39 in file "F:\PiROOT_Tech\student_projects\AutomaticRationCardSystem\Delay.c"
 10319 ;; Parameters:    Size  Location     Type
 10320 ;;  cnt             1    wreg     unsigned char 
 10321 ;; Auto vars:     Size  Location     Type
 10322 ;;  cnt             1    1[BANK0 ] unsigned char 
 10323 ;;  i               1    2[BANK0 ] unsigned char 
 10324 ;; Return value:  Size  Location     Type
 10325 ;;		None               void
 10326 ;; Registers used:
 10327 ;;		wreg, status,2, status,0
 10328 ;; Tracked objects:
 10329 ;;		On entry : 0/0
 10330 ;;		On exit  : 0/0
 10331 ;;		Unchanged: 0/0
 10332 ;; Data sizes:     COMMON   BANK0   BANK1   BANK3   BANK2
 10333 ;;      Params:         0       0       0       0       0
 10334 ;;      Locals:         0       2       0       0       0
 10335 ;;      Temps:          0       1       0       0       0
 10336 ;;      Totals:         0       3       0       0       0
 10337 ;;Total ram usage:        3 bytes
 10338 ;; Hardware stack levels used:    1
 10339 ;; Hardware stack levels required when called:    3
 10340 ;; This function calls:
 10341 ;;		Nothing
 10342 ;; This function is called by:
 10343 ;;		_DelayS
 10344 ;; This function uses a non-reentrant model
 10345 ;;
 10346                           psect	text931
 10347                           	file	"F:\PiROOT_Tech\student_projects\AutomaticRationCardSystem\Delay.c"
 10348                           	line	39
 10349                           	global	__size_of_DelayMs
 10350  0020                     	__size_of_DelayMs	equ	__end_of_DelayMs-_DelayMs
 10351                           	
 10352  13F1                     _DelayMs:	
 10353                           	opt	stack 2
 10354                           ; Regs used in _DelayMs: [wreg+status,2+status,0]
 10355                           ;DelayMs@cnt stored from wreg
 10356  13F1  1283               	bcf	status, 5	;RP0=0, select bank0
 10357  13F2  1303               	bcf	status, 6	;RP1=0, select bank0
 10358  13F3  00C9               	movwf	(DelayMs@cnt)
 10359                           	line	41
 10360                           ;Delay.c: 40: unsigned char i;
 10361                           ;Delay.c: 41: do {
 10362                           	
 10363  13F4                     l923:	
 10364                           	line	42
 10365                           	
 10366  13F4                     l4152:	
 10367                           ;Delay.c: 42: i = 4;
 10368  13F4  3004               	movlw	(04h)
 10369  13F5  00C8               	movwf	(??_DelayMs+0)+0
 10370  13F6  0848               	movf	(??_DelayMs+0)+0,w
 10371  13F7  00CA               	movwf	(DelayMs@i)
 10372                           	line	43
 10373                           ;Delay.c: 43: do {
 10374                           	
 10375  13F8                     l924:	
 10376                           	line	44
 10377                           ;Delay.c: 44: { delayus_variable=(unsigned char)(250/4); asm("nop"); } asm("decfsz _dela
                                 yus_variable,f"); asm("goto $ - 2");;
 10378  13F8  303E               	movlw	(03Eh)
 10379  13F9  00C8               	movwf	(??_DelayMs+0)+0
 10380  13FA  0848               	movf	(??_DelayMs+0)+0,w
 10381  13FB  00F8               	movwf	(_delayus_variable)
 10382                           	
 10383  13FC                     l4154:	
 10384                           # 44 "F:\PiROOT_Tech\student_projects\AutomaticRationCardSystem\Delay.c"
 10385  13FC  0000               nop ;#
 10386                           psect	text931
 10387                           	
 10388  13FD                     l4156:	
 10389                           # 44 "F:\PiROOT_Tech\student_projects\AutomaticRationCardSystem\Delay.c"
 10390  13FD  0BF8               decfsz _delayus_variable,f ;#
 10391                           psect	text931
 10392                           	
 10393  13FE                     l4158:	
 10394                           # 44 "F:\PiROOT_Tech\student_projects\AutomaticRationCardSystem\Delay.c"
 10395  13FE  2BFC               goto $ - 2 ;#
 10396                           psect	text931
 10397                           	line	45
 10398                           	
 10399  13FF                     l4160:	
 10400                           # 45 "F:\PiROOT_Tech\student_projects\AutomaticRationCardSystem\Delay.c"
 10401  13FF  0064               clrwdt ;#
 10402                           psect	text931
 10403                           	line	46
 10404                           	
 10405  1400                     l4162:	
 10406                           ;Delay.c: 46: } while(--i);
 10407  1400  3001               	movlw	low(01h)
 10408  1401  1283               	bcf	status, 5	;RP0=0, select bank0
 10409  1402  1303               	bcf	status, 6	;RP1=0, select bank0
 10410  1403  02CA               	subwf	(DelayMs@i),f
 10411  1404  1D03               	btfss	status,2
 10412  1405  2C07               	goto	u2881
 10413  1406  2C08               	goto	u2880
 10414  1407                     u2881:
 10415  1407  2BF8               	goto	l924
 10416  1408                     u2880:
 10417  1408  2C09               	goto	l4164
 10418                           	
 10419  1409                     l925:	
 10420                           	line	47
 10421                           	
 10422  1409                     l4164:	
 10423                           ;Delay.c: 47: } while(--cnt);
 10424  1409  3001               	movlw	low(01h)
 10425  140A  02C9               	subwf	(DelayMs@cnt),f
 10426  140B  1D03               	btfss	status,2
 10427  140C  2C0E               	goto	u2891
 10428  140D  2C0F               	goto	u2890
 10429  140E                     u2891:
 10430  140E  2BF4               	goto	l923
 10431  140F                     u2890:
 10432  140F  2C10               	goto	l927
 10433                           	
 10434  1410                     l926:	
 10435                           	line	48
 10436                           	
 10437  1410                     l927:	
 10438  1410  0008               	return
 10439                           	opt stack 0
 10440                           GLOBAL	__end_of_DelayMs
 10441  1411                     	__end_of_DelayMs:
 10442 ;; =============== function _DelayMs ends ============
 10443                           
 10444                           	signat	_DelayMs,4216
 10445                           	global	_ISR
 10446                           psect	text932,local,class=CODE,delta=2
 10447                           global __ptext932
 10448  13BE                     __ptext932:
 10449                           
 10450 ;; *************** function _ISR *****************
 10451 ;; Defined at:
 10452 ;;		line 65 in file "F:\PiROOT_Tech\student_projects\AutomaticRationCardSystem\Main.c"
 10453 ;; Parameters:    Size  Location     Type
 10454 ;;		None
 10455 ;; Auto vars:     Size  Location     Type
 10456 ;;		None
 10457 ;; Return value:  Size  Location     Type
 10458 ;;		None               void
 10459 ;; Registers used:
 10460 ;;		wreg, fsr0l, fsr0h, status,2, status,0, pclath, cstack
 10461 ;; Tracked objects:
 10462 ;;		On entry : 0/0
 10463 ;;		On exit  : 0/0
 10464 ;;		Unchanged: 0/0
 10465 ;; Data sizes:     COMMON   BANK0   BANK1   BANK3   BANK2
 10466 ;;      Params:         0       0       0       0       0
 10467 ;;      Locals:         0       0       0       0       0
 10468 ;;      Temps:          4       0       0       0       0
 10469 ;;      Totals:         4       0       0       0       0
 10470 ;;Total ram usage:        4 bytes
 10471 ;; Hardware stack levels used:    1
 10472 ;; Hardware stack levels required when called:    2
 10473 ;; This function calls:
 10474 ;;		_gsm_read_line2
 10475 ;; This function is called by:
 10476 ;;		Interrupt level 1
 10477 ;; This function uses a non-reentrant model
 10478 ;;
 10479                           psect	text932
 10480                           	file	"F:\PiROOT_Tech\student_projects\AutomaticRationCardSystem\Main.c"
 10481                           	line	65
 10482                           	global	__size_of_ISR
 10483  0019                     	__size_of_ISR	equ	__end_of_ISR-_ISR
 10484                           	
 10485  13BE                     _ISR:	
 10486                           	opt	stack 1
 10487                           ; Regs used in _ISR: [wreg-fsr0h+status,2+status,0+pclath+cstack]
 10488                           psect	intentry,class=CODE,delta=2
 10489                           global __pintentry
 10490  0004                     __pintentry:
 10491                           global interrupt_function
 10492  0004                     interrupt_function:
 10493                           	global saved_w
 10494  007E                     	saved_w	set	btemp+0
 10495  0004  00FE               	movwf	saved_w
 10496  0005  0803               	movf	status,w
 10497  0006  00F4               	movwf	(??_ISR+0)
 10498  0007  0804               	movf	fsr0,w
 10499  0008  00F5               	movwf	(??_ISR+1)
 10500  0009  080A               	movf	pclath,w
 10501  000A  00F6               	movwf	(??_ISR+2)
 10502  000B  1283               	bcf	status, 5	;RP0=0, select bank0
 10503  000C  1303               	bcf	status, 6	;RP1=0, select bank0
 10504  000D  087F               	movf	btemp+1,w
 10505  000E  00F7               	movwf	(??_ISR+3)
 10506  000F  160A  118A  2BBE   	ljmp	_ISR
 10507                           psect	text932
 10508                           	line	66
 10509                           	
 10510  13BE                     i1l4274:	
 10511                           ;Main.c: 66: if (RCIF==1)
 10512  13BE  1E8C               	btfss	(101/8),(101)&7
 10513  13BF  2BC1               	goto	u310_21
 10514  13C0  2BC2               	goto	u310_20
 10515  13C1                     u310_21:
 10516  13C1  2BCA               	goto	i1l1107
 10517  13C2                     u310_20:
 10518                           	line	67
 10519                           	
 10520  13C2                     i1l4276:	
 10521                           ;Main.c: 67: { sms_indication=0;
 10522  13C2  10FB               	bcf	(_sms_indication/8),(_sms_indication)&7
 10523                           	line	68
 10524                           	
 10525  13C3                     i1l4278:	
 10526                           ;Main.c: 68: gsm_read_line2(sms);
 10527  13C3  30AF               	movlw	(_sms)&0ffh
 10528  13C4  160A  118A  2687   	fcall	_gsm_read_line2
              160A  118A         
 10529  13C9  2BCA               	goto	i1l1107
 10530                           	line	69
 10531                           	
 10532  13CA                     i1l1106:	
 10533                           	line	70
 10534                           	
 10535  13CA                     i1l1107:	
 10536  13CA  0877               	movf	(??_ISR+3),w
 10537  13CB  1283               	bcf	status, 5	;RP0=0, select bank0
 10538  13CC  1303               	bcf	status, 6	;RP1=0, select bank0
 10539  13CD  00FF               	movwf	btemp+1
 10540  13CE  0876               	movf	(??_ISR+2),w
 10541  13CF  008A               	movwf	pclath
 10542  13D0  0875               	movf	(??_ISR+1),w
 10543  13D1  0084               	movwf	fsr0
 10544  13D2  0874               	movf	(??_ISR+0),w
 10545  13D3  0083               	movwf	status
 10546  13D4  0EFE               	swapf	saved_w,f
 10547  13D5  0E7E               	swapf	saved_w,w
 10548  13D6  0009               	retfie
 10549                           	opt stack 0
 10550                           GLOBAL	__end_of_ISR
 10551  13D7                     	__end_of_ISR:
 10552 ;; =============== function _ISR ends ============
 10553                           
 10554                           	signat	_ISR,88
 10555                           	global	_gsm_read_line2
 10556                           psect	text933,local,class=CODE,delta=2
 10557                           global __ptext933
 10558  1687                     __ptext933:
 10559                           
 10560 ;; *************** function _gsm_read_line2 *****************
 10561 ;; Defined at:
 10562 ;;		line 48 in file "F:\PiROOT_Tech\student_projects\AutomaticRationCardSystem\Main.c"
 10563 ;; Parameters:    Size  Location     Type
 10564 ;;  buffer          1    wreg     PTR unsigned char 
 10565 ;;		 -> sms(20), 
 10566 ;; Auto vars:     Size  Location     Type
 10567 ;;  buffer          1    2[COMMON] PTR unsigned char 
 10568 ;;		 -> sms(20), 
 10569 ;;  rec_data        1    3[COMMON] unsigned char 
 10570 ;;  flag            1    1[COMMON] unsigned char 
 10571 ;; Return value:  Size  Location     Type
 10572 ;;		None               void
 10573 ;; Registers used:
 10574 ;;		wreg, fsr0l, fsr0h, status,2, status,0, pclath, cstack
 10575 ;; Tracked objects:
 10576 ;;		On entry : 0/0
 10577 ;;		On exit  : 0/0
 10578 ;;		Unchanged: 0/0
 10579 ;; Data sizes:     COMMON   BANK0   BANK1   BANK3   BANK2
 10580 ;;      Params:         0       0       0       0       0
 10581 ;;      Locals:         3       0       0       0       0
 10582 ;;      Temps:          1       0       0       0       0
 10583 ;;      Totals:         4       0       0       0       0
 10584 ;;Total ram usage:        4 bytes
 10585 ;; Hardware stack levels used:    1
 10586 ;; Hardware stack levels required when called:    1
 10587 ;; This function calls:
 10588 ;;		i1_receive
 10589 ;; This function is called by:
 10590 ;;		_ISR
 10591 ;; This function uses a non-reentrant model
 10592 ;;
 10593                           psect	text933
 10594                           	file	"F:\PiROOT_Tech\student_projects\AutomaticRationCardSystem\Main.c"
 10595                           	line	48
 10596                           	global	__size_of_gsm_read_line2
 10597  0046                     	__size_of_gsm_read_line2	equ	__end_of_gsm_read_line2-_gsm_read_line2
 10598                           	
 10599  1687                     _gsm_read_line2:	
 10600                           	opt	stack 1
 10601                           ; Regs used in _gsm_read_line2: [wreg-fsr0h+status,2+status,0+pclath+cstack]
 10602                           ;gsm_read_line2@buffer stored from wreg
 10603  1687  00F2               	movwf	(gsm_read_line2@buffer)
 10604                           	line	49
 10605                           	
 10606  1688                     i1l4254:	
 10607                           ;Main.c: 49: unsigned char rec_data=0,flag=0;
 10608  1688  1003               	clrc
 10609  1689  3000               	movlw	0
 10610  168A  1803               	btfsc	status,0
 10611  168B  3001               	movlw	1
 10612  168C  00F3               	movwf	(gsm_read_line2@rec_data)
 10613  168D  1003               	clrc
 10614  168E  3000               	movlw	0
 10615  168F  1803               	btfsc	status,0
 10616  1690  3001               	movlw	1
 10617  1691  00F1               	movwf	(gsm_read_line2@flag)
 10618  1692  2E93               	goto	i1l4256
 10619                           	line	51
 10620                           ;Main.c: 51: do
 10621                           	
 10622  1693                     i1l1099:	
 10623                           	line	53
 10624                           	
 10625  1693                     i1l4256:	
 10626                           ;Main.c: 52: {
 10627                           ;Main.c: 53: rec_data = receive();
 10628  1693  160A  118A  239A   	fcall	i1_receive
              160A  118A         
 10629  1698  00F0               	movwf	(??_gsm_read_line2+0)+0
 10630  1699  0870               	movf	(??_gsm_read_line2+0)+0,w
 10631  169A  00F3               	movwf	(gsm_read_line2@rec_data)
 10632                           	line	54
 10633                           	
 10634  169B                     i1l4258:	
 10635                           ;Main.c: 54: if(rec_data=='#'){flag=1;rec_data = receive(); }
 10636  169B  0873               	movf	(gsm_read_line2@rec_data),w
 10637  169C  3A23               	xorlw	023h
 10638  169D  1D03               	skipz
 10639  169E  2EA0               	goto	u307_21
 10640  169F  2EA1               	goto	u307_20
 10641  16A0                     u307_21:
 10642  16A0  2EAD               	goto	i1l4264
 10643  16A1                     u307_20:
 10644                           	
 10645  16A1                     i1l4260:	
 10646  16A1  01F1               	clrf	(gsm_read_line2@flag)
 10647  16A2  1403               	bsf	status,0
 10648  16A3  0DF1               	rlf	(gsm_read_line2@flag),f
 10649                           	
 10650  16A4                     i1l4262:	
 10651  16A4  160A  118A  239A   	fcall	i1_receive
              160A  118A         
 10652  16A9  00F0               	movwf	(??_gsm_read_line2+0)+0
 10653  16AA  0870               	movf	(??_gsm_read_line2+0)+0,w
 10654  16AB  00F3               	movwf	(gsm_read_line2@rec_data)
 10655  16AC  2EAD               	goto	i1l4264
 10656                           	
 10657  16AD                     i1l1100:	
 10658                           	line	55
 10659                           	
 10660  16AD                     i1l4264:	
 10661                           ;Main.c: 55: if(flag)
 10662  16AD  0871               	movf	(gsm_read_line2@flag),w
 10663  16AE  1D03               	skipz
 10664  16AF  2EB1               	goto	u308_20
 10665  16B0  2EBD               	goto	i1l4270
 10666  16B1                     u308_20:
 10667                           	line	57
 10668                           	
 10669  16B1                     i1l4266:	
 10670                           ;Main.c: 56: {
 10671                           ;Main.c: 57: *buffer++ = rec_data;
 10672  16B1  0873               	movf	(gsm_read_line2@rec_data),w
 10673  16B2  00F0               	movwf	(??_gsm_read_line2+0)+0
 10674  16B3  0872               	movf	(gsm_read_line2@buffer),w
 10675  16B4  0084               	movwf	fsr0
 10676  16B5  0870               	movf	(??_gsm_read_line2+0)+0,w
 10677  16B6  1383               	bcf	status, 7	;select IRP bank0
 10678  16B7  0080               	movwf	indf
 10679                           	
 10680  16B8                     i1l4268:	
 10681  16B8  3001               	movlw	(01h)
 10682  16B9  00F0               	movwf	(??_gsm_read_line2+0)+0
 10683  16BA  0870               	movf	(??_gsm_read_line2+0)+0,w
 10684  16BB  07F2               	addwf	(gsm_read_line2@buffer),f
 10685  16BC  2EBD               	goto	i1l4270
 10686                           	line	58
 10687                           	
 10688  16BD                     i1l1101:	
 10689                           	line	59
 10690                           	
 10691  16BD                     i1l4270:	
 10692                           ;Main.c: 58: }
 10693                           ;Main.c: 59: }while (rec_data != '\n');
 10694  16BD  0873               	movf	(gsm_read_line2@rec_data),w
 10695  16BE  3A0A               	xorlw	0Ah
 10696  16BF  1D03               	skipz
 10697  16C0  2EC2               	goto	u309_21
 10698  16C1  2EC3               	goto	u309_20
 10699  16C2                     u309_21:
 10700  16C2  2E93               	goto	i1l4256
 10701  16C3                     u309_20:
 10702  16C3  2EC4               	goto	i1l4272
 10703                           	
 10704  16C4                     i1l1102:	
 10705                           	line	60
 10706                           	
 10707  16C4                     i1l4272:	
 10708                           ;Main.c: 60: *buffer='\0';
 10709  16C4  1003               	clrc
 10710  16C5  0872               	movf	(gsm_read_line2@buffer),w
 10711  16C6  0084               	movwf	fsr0
 10712  16C7  3000               	movlw	0
 10713  16C8  1803               	btfsc	status,0
 10714  16C9  3001               	movlw	1
 10715  16CA  1383               	bcf	status, 7	;select IRP bank0
 10716  16CB  0080               	movwf	indf
 10717                           	line	61
 10718                           	
 10719  16CC                     i1l1103:	
 10720  16CC  0008               	return
 10721                           	opt stack 0
 10722                           GLOBAL	__end_of_gsm_read_line2
 10723  16CD                     	__end_of_gsm_read_line2:
 10724 ;; =============== function _gsm_read_line2 ends ============
 10725                           
 10726                           	signat	_gsm_read_line2,4216
 10727                           	global	i1_receive
 10728                           psect	text934,local,class=CODE,delta=2
 10729                           global __ptext934
 10730  139A                     __ptext934:
 10731                           
 10732 ;; *************** function i1_receive *****************
 10733 ;; Defined at:
 10734 ;;		line 2 in file "F:\PiROOT_Tech\student_projects\AutomaticRationCardSystem\UART.C"
 10735 ;; Parameters:    Size  Location     Type
 10736 ;;		None
 10737 ;; Auto vars:     Size  Location     Type
 10738 ;;		None
 10739 ;; Return value:  Size  Location     Type
 10740 ;;                  1    wreg      unsigned char 
 10741 ;; Registers used:
 10742 ;;		wreg
 10743 ;; Tracked objects:
 10744 ;;		On entry : 0/0
 10745 ;;		On exit  : 0/0
 10746 ;;		Unchanged: 0/0
 10747 ;; Data sizes:     COMMON   BANK0   BANK1   BANK3   BANK2
 10748 ;;      Params:         0       0       0       0       0
 10749 ;;      Locals:         0       0       0       0       0
 10750 ;;      Temps:          0       0       0       0       0
 10751 ;;      Totals:         0       0       0       0       0
 10752 ;;Total ram usage:        0 bytes
 10753 ;; Hardware stack levels used:    1
 10754 ;; This function calls:
 10755 ;;		Nothing
 10756 ;; This function is called by:
 10757 ;;		_gsm_read_line2
 10758 ;; This function uses a non-reentrant model
 10759 ;;
 10760                           psect	text934
 10761                           	file	"F:\PiROOT_Tech\student_projects\AutomaticRationCardSystem\UART.C"
 10762                           	line	2
 10763                           	global	__size_ofi1_receive
 10764  0012                     	__size_ofi1_receive	equ	__end_ofi1_receive-i1_receive
 10765                           	
 10766  139A                     i1_receive:	
 10767                           	opt	stack 1
 10768                           ; Regs used in i1_receive: [wreg]
 10769                           	line	3
 10770                           	
 10771  139A                     i1l4468:	
 10772                           ;UART.C: 3: if(OERR){CREN=0;CREN=1;}
 10773  139A  1283               	bcf	status, 5	;RP0=0, select bank0
 10774  139B  1303               	bcf	status, 6	;RP1=0, select bank0
 10775  139C  1C98               	btfss	(193/8),(193)&7
 10776  139D  2B9F               	goto	u355_21
 10777  139E  2BA0               	goto	u355_20
 10778  139F                     u355_21:
 10779  139F  2BA4               	goto	i1l1015
 10780  13A0                     u355_20:
 10781                           	
 10782  13A0                     i1l4470:	
 10783  13A0  1218               	bcf	(196/8),(196)&7
 10784  13A1  1618               	bsf	(196/8),(196)&7
 10785  13A2  2BA4               	goto	i1l1015
 10786                           	
 10787  13A3                     i1l1014:	
 10788                           	line	4
 10789                           ;UART.C: 4: while(!RCIF);
 10790  13A3  2BA4               	goto	i1l1015
 10791                           	
 10792  13A4                     i1l1016:	
 10793                           	
 10794  13A4                     i1l1015:	
 10795  13A4  1E8C               	btfss	(101/8),(101)&7
 10796  13A5  2BA7               	goto	u356_21
 10797  13A6  2BA8               	goto	u356_20
 10798  13A7                     u356_21:
 10799  13A7  2BA4               	goto	i1l1015
 10800  13A8                     u356_20:
 10801  13A8  2BA9               	goto	i1l4472
 10802                           	
 10803  13A9                     i1l1017:	
 10804                           	line	5
 10805                           	
 10806  13A9                     i1l4472:	
 10807                           ;UART.C: 5: return(RCREG);
 10808  13A9  081A               	movf	(26),w	;volatile
 10809  13AA  2BAB               	goto	i1l1018
 10810                           	
 10811  13AB                     i1l4474:	
 10812                           	line	6
 10813                           	
 10814  13AB                     i1l1018:	
 10815  13AB  0008               	return
 10816                           	opt stack 0
 10817                           GLOBAL	__end_ofi1_receive
 10818  13AC                     	__end_ofi1_receive:
 10819 ;; =============== function i1_receive ends ============
 10820                           
 10821                           	signat	i1_receive,89
 10822                           psect	text935,local,class=CODE,delta=2
 10823                           global __ptext935
 10824  0000                     __ptext935:
 10825                           	global	btemp
 10826  007E                     	btemp set 07Eh
 10827                           
 10828                           	DABS	1,126,2	;btemp
 10829                           	global	wtemp0
 10830  007E                     	wtemp0 set btemp


HI-TECH Software PICC Macro Assembler V9.80 build 6738 
Symbol Table                                                                                   Sat Jul 23 18:22:21 2016

                         _a 1812                           _i 0079                           _j 007A  
                         _k 00A0                           pc 0002                 _softreceive 1643  
                        _RD 0C60                          _c1 002E                          _c2 0030  
                        _WR 0C61                ___awdiv@sign 0055                          fsr 0004  
       ___wmul@multiplicand 004E                         l923 13F4                         l924 13F8  
                       l925 1409                         l926 1410                         l927 1410  
                       l951 1377                         l960 144F                         l944 1414  
                       l961 1451                         l945 1419                         l962 1451  
                       l954 143A                         l946 1429                         l955 143B  
                       l947 1430                         l956 1441                         l948 1430  
                       l980 14FD                         l957 1442                         l965 1559  
                       l958 1448                         l974 09CE                         l959 1449  
                       l992 164B                         l968 158B                         l993 164B  
                       l977 14EC                         l994 1650                         l978 14D3  
                       l995 1661                         l979 14FD                         _GIE 005F  
                       l996 167D                         l989 1388                         l997 1671  
                       l998 1686                         _RC0 0038                         _RC1 0039  
                       _RD0 0040                         _RD1 0041                         _RC3 003B  
                       _RD2 0042                         _RC4 003C                         _RD3 0043  
                       _RD4 0044                         _RD5 0045                         _RD6 0046  
                       _RD7 0047                         _ISR 13BE                         fsr0 0004  
                       _sms 00AF                         indf 0000                ___awmod@sign 004E  
 __end_of_SoftWareUart_Init 1389                        ?_ISR 0070                        l1021 1351  
                      l1014 13B5                        l1022 1351                        l1030 14C0  
                      l1110 1603                        l1015 13B6                        l1023 1356  
                      l1031 14A7                        l1111 15E0                        l1016 13B6  
                      l1024 1358                        l1032 14D1                        l1112 1601  
                      l1040 0D88                        l1017 13BB                        l1033 14D1  
                      l1113 1603                        l1041 0D97                        l1018 13BD  
                      l1122 1759                        l1050 0DF4                        l1042 0DA8  
                      l1131 086B                        l1051 0E11                        l1043 0DA7  
                      l1220 15C6                        l1140 0914                        l1116 07FE  
                      l1044 0DB6                        l1036 0D6A                        l1213 158F  
                      l1045 0DC7                        l1037 0D69                        l1125 0AA9  
                      l1230 1480                        l1214 1590                        l1150 0BB0  
                      l1134 08BF                        l1046 0DC6                        l1038 0D78  
                      l1231 147F                        l1215 1590                        l1223 0952  
                      l1119 0D28                        l1151 0BBF                        l1047 0DD5  
                      l1039 0D89                        l1143 0B1F                        l1216 1597  
                      l1224 0916                        l1152 0C34                        l1128 17FF  
                      l1048 0DE6                        l1160 00B7                        l1137 0817  
                      l1233 149E                        l1217 15B3                        l1225 0947  
                      l1153 0C33                        l1049 0DE5                        l1161 00F7  
                      l1234 149F                        l1218 15C5                        l1226 096A  
                      l1250 17A4                        l1146 0FFF                        l1154 0C42  
                      l1170 0687                        l1162 00D6                        l1235 14A5  
                      l1219 15C6                        l1227 0965                        l1251 1776  
                      l1155 0C46                        l1171 06BD                        l1163 00F6  
                      l1244 1505                        l1252 176A                        l1260 170B  
                      l1172 06BC                        l1164 00F5                        l1245 150F  
                      l1253 177B                        l1261 16E5                        l1149 0BB1  
                      l1173 06FD                        l1165 0660                        l1246 1524  
                      l1254 177C                        l1262 16D9                        l1174 06FE  
                      l1166 00F8                        l1158 004C                        l1247 152B  
                      l1255 1795                        l1263 16EA                        l1175 06FE  
                      l1167 0671                        l1159 0081                        l1192 1455  
                      l1256 17A3                        l1264 16EB                        l1176 0705  
                      l1168 02C3                        l1193 145D                        l1257 17AB  
                      l1265 16FC                        l1177 0706                        l1169 048E  
                      l1194 147A                        l1266 170A                        l1178 0707  
                      l1267 1712                        l1179 0707                        l1460 0A28  
                      l1452 09E3                        l1461 0A33                        l1453 09ED  
                      l1390 0B61                        l1462 0A3A                        l1454 0A29  
                      l1391 0B7A                        l1455 0A03                        l1392 0B88  
                      l1384 0B34                        l1456 09F7                        l5000 061D  
                      l1393 0B93                        l1385 0B41                        l1457 0A08  
                      l1394 0B9A                        l1386 0B89                        l1458 0A09  
                      l5010 064A                        l5002 0628                        l1387 0B5B  
                      l1459 0A1A                        l4300 15A3                        l1388 0B4F  
                      l5012 0657                        l5004 062E                        l5020 0671  
                      l1389 0B60                        l4310 15BB                        l4302 15AB  
                      l5030 0696                        l5022 0676                        l5014 065A  
                      l5006 0639                        l4160 13FF                        l4152 13F4  
                      l4312 15BC                        l4304 15AE                        l4320 0916  
                      l4400 0B34                        l5040 06C3                        l5032 06B1  
                      l5024 067B                        l5016 065F                        l5008 0647  
                      l4162 1400                        l4154 13FC                        l4170 143F  
                      l4314 15BD                        l4306 15B2                        l4322 092B  
                      l4330 0952                        l4410 0B56                        l4402 0B38  
                      l5042 06F7                        l5034 06B5                        l5026 0681  
                      l5018 0660                        l4164 1409                        l4156 13FD  
                      l4172 1446                        l4316 15C3                        l4308 15B7  
                      l4332 0965                        l4324 0946                        l4340 1509  
                      l4420 0B7A                        l4412 0B5B                        l4404 0B3D  
                      l4500 1655                        l5036 06BA                        l5028 0687  
                      l4158 13FE                        l4174 144D                        l4166 1434  
                      l4182 13AC                        l4190 1350                        l4334 096A  
                      l4326 0947                        l4318 0915                        l4342 1516  
                      l4350 1766                        l4430 0B9A                        l4422 0B81  
                      l4414 0B61                        l4406 0B4B                        l4510 166C  
                      l4502 165A                        l5038 06BD                        l4168 1438  
                      l4184 13B2                        l4192 1356                        l4280 145D  
                      l4328 094D                        l4344 1524                        l4336 14FE  
                      l4360 178D                        l4352 176A                        l4416 0B72  
                      l4408 0B4F                        l4424 0B89                        l4440 09E7  
                      l4432 09CF                        l4512 1677                        l4504 1660  
                      l4520 14A7                        l4600 0BBF                        l4186 13BB  
                      l4282 147A                        l4290 1480                        l4346 152B  
                      l4338 1505                        l4370 17AB                        l4362 1793  
                      l4354 1771                        l4426 0B8D                        l4418 0B78  
                      l4450 0A03                        l4442 09ED                        l4434 09D6  
                      l4514 167D                        l4506 1661                        l4522 14B7  
                      l4530 08C0                        l4610 0C0B                        l4602 0BDE  
                      l4188 13BD                        l4284 0802                        l4292 1494  
                      l4364 1795                        l4356 1776                        l4348 175A  
                      l4380 16E5                        l4372 16CD                        l4428 0B93  
                      l4452 0A09                        l4444 09F3                        l4460 0A29  
                      l4436 09DA                        l4516 1686                        l4508 1666  
                      l4524 14C0                        l4540 0F0F                        l4532 0E12  
                      l4620 0C42                        l4612 0C16                        l4604 0BE4  
                      l4700 0DD5                        l5068 0666                        l4286 0814  
                      l4294 149F                        l4366 179C                        l4358 177C  
                      l4382 16EB                        l4374 16D5                        l4390 170B  
                      l4462 0A2D                        l4454 0A13                        l4446 09F7  
                      l4438 09E3                        l4518 14A6                        l4526 0C47  
                      l4542 0F57                        l4534 0EA7                        l4550 152F  
                      l4614 0C21                        l4606 0BEF                        l4630 0993  
                      l4622 096B                        l4710 0E05                        l4702 0DDE  
                      l4296 14A5                        l4288 147E                        l4368 17A4  
                      l4392 1712                        l4384 16F5                        l4376 16D9  
                      l4464 0A33                        l4456 0A1A                        l4448 09FE  
                      l4480 141F                        l4528 1713                        l4544 0F77  
                      l4536 0ECF                        l4560 1554                        l4552 153C  
                      l4616 0C2C                        l4608 0BFA                        l4624 0971  
                      l4632 14D2                        l4640 070D                        l4712 0E0B  
                      l4704 0DE6                        l4720 0A6B                        l4800 00CA  
                      l4298 1597                        l4386 16FC                        l4378 16E0  
                      l4394 0B20                        l4466 0A3A                        l4458 0A21  
                      l4482 1420                        l4490 1374                        l4546 0F97  
                      l4538 0EEF                        l4554 1541                        l4570 1576  
                      l4562 155D                        l4618 0C34                        l4626 097C  
                      l4634 14D3                        l4642 0713                        l4650 17AF  
                      l4706 0DF4                        l4722 0A71                        l4714 0A3B  
                      l4730 0AB0                        l4810 00F8                        l4802 00CE  
                      l4388 1703                        l4396 0B27                        l4484 1429  
                      l4476 1414                        l4492 1378                        l4548 0FC8  
                      l4556 1547                        l4572 157B                        l4564 156A  
                      l4580 15CB                        l4628 098D                        l4636 14E3  
                      l4644 0737                        l4652 17B5                        l4660 0846  
                      l4708 0DFA                        l4724 0A7C                        l4716 0A41  
                      l4740 0AEF                        l4732 0ABB                        l4900 035F  
                      l4820 013F                        l4812 0103                        l4804 00D6  
                      l4398 0B2B                        l4478 1419                        l4486 1368  
                      l4494 1383                        l4558 154C                        l4574 1583  
                      l4566 156F                        l4590 15F4                        l4582 15D1  
                      l4638 14EC                        l4646 076C                        l4654 17DA  
                      l4662 086F                        l4670 0D2F                        l4726 0A8A  
                      l4718 0A4C                        l4742 0B00                        l4734 0ACC  
                      l4910 03C3                        l4902 036F                        l4830 0182  
                      l4822 014A                        l4814 010E                        l4806 00E9  
                      l4750 0019                        l4488 136B                        l4496 1643  
                      l4576 1588                        l4568 1570                        l4584 15DF  
                      l4592 0B9B                        l4648 07B2                        l4656 081B  
                      l4664 0875                        l4680 0D6A                        l4672 0D3A  
                      l4744 0B06                        l4736 0ADA                        l4728 0AAA  
                      l4920 041D                        l4912 03CF                        l4904 037F  
                      l4840 01EC                        l4832 0194                        l4824 015C  
                      l4816 0122                        l4808 00ED                        l4760 002E  
                      l4752 001D                        l4498 1650                        l4586 15E0  
                      l4578 15C7                        l4594 0B9E                        l4658 0821  
                      l4666 089A                        l4690 0DA0                        l4682 0D78  
                      l4674 0D4B                        l4746 0B11                        l4738 0AE0  
                      l4930 044C                        l4922 0429                        l4914 03D9  
                      l4906 039A                        l4850 0246                        l4842 01F8  
                      l4834 01A4                        l4826 0167                        l4818 012D  
                      l4770 0047                        l4762 0033                        l4754 0024  
                      l4588 15EE                        l4596 0BA9                        l4692 0DA8  
                      l4684 0D81                        l4676 0D51                        l4668 0D29  
                      l4940 0479                        l4932 0457                        l4924 0435  
                      l4916 03F4                        l4908 03B7                        l4860 027B  
                      l4852 0252                        l4844 0204                        l4836 01B4  
                      l4828 0173                        l4780 0066                        l4772 004C  
                      l4764 0038                        l4756 0027                        l4748 0015  
                      l4598 0BB1                        l4694 0DB6                        l4686 0D89  
                      l4678 0D62                        l4950 04A4                        l4942 0486  
                      l4934 045D                        l4926 043B                        l4918 0411  
                      l4870 02AB                        l4862 0281                        l4854 025E  
                      l4846 020E                        l4838 01CF                        l4790 008C  
                      l4782 0071                        l4774 0051                        l4766 003D  
                      l4758 0029                        l4696 0DBF                        l4688 0D97  
                      l4960 04F2                        l4952 04B8                        l4944 0489  
                      l4936 0468                        l4928 0446                        l4880 02CE  
                      l4872 02AE                        l4864 028C                        l4856 026A  
                      l4848 0229                        l4792 0097                        l4784 007F  
                      l4776 0057                        l4768 0042                        l4698 0DC7  
                      l4970 053A                        l4962 04FD                        l4954 04C3  
                      l4946 048E                        l4938 0476                        l4890 0315  
                      l4882 02D9                        l4874 02BB                        l4866 0292  
                      l4858 0270                        l4794 00AB                        l4778 0060  
                      l4786 0081                        l4980 059A                        l4972 054A  
                      l4964 0509                        l4956 04D5                        l4948 0499  
                      l4892 0327                        l4884 02ED                        l4876 02BE  
                      l4868 029D                        l4796 00AF                        l4788 0086  
                      l4990 05F4                        l4982 05A4                        l4974 0565  
                      l4966 0518                        l4958 04E0                        l4894 0332  
                      l4886 02F8                        l4878 02C3                        l4798 00B7  
                      l4992 0600                        l4984 05BF                        l4976 0582  
                      l4968 052A                        l4896 033E                        l4888 030A  
                      l4994 0606                        l4986 05DC                        l4978 058E  
                      l4898 034D                        l4996 060C                        l4988 05E8  
                      l4998 0617                        STR_1 1A42                        STR_2 1A31  
                      STR_3 1AB6                        STR_4 1A92                        STR_5 1A87  
                      STR_6 1A7C                        STR_7 19A0                        STR_8 1A9C  
                      STR_9 1860                        _CREN 00C4                        u3110 145C  
                      u3111 145B                        u3120 1494                        u3121 1493  
                      u3130 149D                        u3131 149C                        u3140 1596  
                      u3220 1523                        u3300 16D5                        u3141 1595  
                      u3221 1522                        u3205 1510                        u3301 16D4  
                      u3150 15B2                        u3230 1766                        u3151 15B1  
                      u3215 1517                        u3231 1765                        u4007 0977  
                      u3160 15C3                        u3320 16E9                        u3400 0B5F  
                      u3161 15C2                        u3321 16E8                        u3401 0B5E  
                      u4017 0988                        u3170 092B                        u3250 177A  
                      u3330 16F5                        u3171 092A                        u3251 1779  
                      u3331 16F4                        u3315 16DA                        u4027 0999  
                      u3180 0964                        u3420 0B72                        u3500 0A07  
                      u3181 0963                        u3245 176B                        u3421 0B71  
                      u3501 0A06                        u4037 1652                        u3190 1509  
                      u3270 178D                        u3350 1709                        u3510 0A13  
                      u3191 1508                        u3271 178C                        u3351 1708  
                      u3335 16F1                        u3415 0B62                        u3511 0A12  
                      u4047 1663                        _PIE1 008C                        u3440 0B87  
                      u3360 0B2B                        u3600 165F                        u3185 0960  
                      u3265 177D                        u3345 16FD                        u3441 0B86  
                      u3425 0B6E                        u3361 0B2A                        u4057 167F  
                      u3601 165E                        u3290 17A2                        u3450 0B8D  
                      u3370 0B38                        u3530 0A27                        u3610 166C  
                      u3291 17A1                        u3275 1789                        u3435 0B7B  
                      u3371 0B37                        u3531 0A26                        u3515 0A0F  
                      u4067 1385                        u3611 166B                        u2900 1438  
                      u3380 0B4B                        u3540 0A2D                        u3460 09DA  
                      u3620 167C                        u3700 0C41                        u2901 1437  
                      u3285 1796                        u3381 0B4A                        u3525 0A1B  
                      u3461 09D9                        u4077 136F                        u3621 167B  
                      u3701 0C40                        u2910 143F                        u3470 09E7  
                      u3630 14D0                        u3710 14FC                        u2911 143E  
                      u3471 09E6                        u3631 14CF                        u3711 14FB  
                      u2920 1446                        u3480 09F3                        u3720 0D77  
                      u3800 00E9                        u2921 1445                        u3481 09F2  
                      u3721 0D76                        u3801 00E8                        u2930 144D  
                      u3570 1428                        u3730 0D96                        u3810 0681  
                      u2931 144C                        u3395 0B50                        u3571 1427  
                      u3731 0D95                        u3811 0680                        u2940 13B2  
                      u3580 142F                        u3660 15CB                        u3740 0DB5  
                      u3820 06B1                        u2941 13B1                        u3581 142E  
                      u3645 1532                        u3661 15CA                        u3741 0DB4  
                      u3821 06B0                        u2950 13BA                        u3590 164F  
                      u3670 15DE                        u3750 0DD4                        u3830 06B5  
                      u2951 13B9                        u3495 09F8                        u3591 164E  
                      u3655 1560                        u3671 15DD                        u3751 0DD3  
                      u3831 06B4                        u2880 1408                        u2960 1355  
                      u3680 1601                        u3760 0DF3                        u3840 06C3  
                      u2881 1407                        u2961 1354                        u3681 1600  
                      u3761 0DF2                        u3841 06C2                        u2890 140F  
                      u3690 0BBE                        u3850 0704                        u3770 0057  
                      u2891 140E                        u3675 15DA                        u3691 0BBD  
                      u3851 0703                        u3907 0346                        u3771 0056  
                      u3780 00AB                        _RCIF 0065                        u3685 15FD  
                      u3917 0470                        u3781 00AA                        u3790 00CA  
                      u3927 047F                        u3791 00C9                        u3937 0511  
                      u3947 0641                        u3867 0079                        u3957 0650  
                      u3877 017B                        u3967 068F                        u3887 02A5  
                      u3977 0AD4                        u3897 02B4                        _OERR 00C1  
                      u3987 0AE8                        u3997 0B19                        _WREN 0C62  
                      _TXIF 0064              ??_eeprom_write 0059                        _User 0026  
                      _main 0015                        btemp 007E                        start 0012  
           __end_of_DelayMs 1411                 _usartstring 14A6                       ??_ISR 0074  
       __end_of_DisplayAmnt 07FF         __end_of_DisplayRise 086C          __size_of_RFID_read 003D  
                     ?_main 0070             __end_of___awdiv 0B9B                       _EEADR 010D  
                     STR_10 1845                       STR_20 1925                       STR_12 1828  
                     STR_21 1890                       STR_30 1A63                       STR_14 1964  
                     STR_22 18A6                       STR_31 1AAC                       STR_23 1A0D  
                     STR_32 1A53                       STR_40 1A1F                       STR_24 19D7  
                     STR_16 1978                       STR_33 1AB1                       STR_41 19FB  
                     STR_25 19E9                       STR_34 19E9                       STR_42 19C5  
                     STR_26 19B3                       STR_18 198C                       STR_50 1910  
                     STR_51 18BC                       STR_35 19B3                       STR_19 194F  
                     STR_43 18FB                       STR_27 1878                       STR_44 18BC  
                     STR_52 18D1                       STR_28 1A70                       STR_36 18E6  
           __end_of___awmod 0A3B                       STR_45 18D1                       STR_53 193A  
                     STR_29 1AAC                       STR_37 18BC                       STR_46 193A  
                     STR_54 1A1F                       STR_38 18D1                       STR_55 19FB  
                     STR_47 1A1F                       STR_39 193A                       STR_56 19C5  
                     STR_48 19FB                       STR_49 19C5                       STR_57 1AA6  
                     _CARRY 0018                       _ANSEL 0188             ___awdiv@divisor 004F  
           __end_of___lwdiv 17AC             __end_of___lwmod 1713             ___awdiv@counter 0054  
                     _RCREG 001A                       _RCSTA 0018                       _SPBRG 0099  
                     _PORTC 0007                       _PORTD 0008                       _TRISC 0087  
                     _TRISD 0088                       _TXREG 0019                       _TXSTA 0098  
                     _c1bal 007C                       _c2bal 0060                       _User1 0062  
                     _User2 00D2                       _User3 00DF             __end_of_lcddata 158C  
           __end_of_lcdport 1452                       _digit 181D             __end_of_receive 13BE  
            __pbitbssCOMMON 03D8                       pclath 000A           ?_LoadStockToArray 0070  
                     status 0003             __end_of_startup 0B20                       wtemp0 007E  
        ??_LoadStockToArray 0056                __end_of_main 070A                  SendStock@d 004B  
          __end_of_ReadAmnt 0D29          __size_ofi1_receive 0012               _KeroseneArray 0040  
                    ??_main 005D               _KeroseneStock 0020  __size_of_SoftWareUart_Init 0011  
      __end_of_DisplaySugar 1800        __end_of_DisplayStock 0AAA                      _EEDATA 010C  
                    _EECON1 018C                      _EECON2 018D            ___awdiv@dividend 0051  
                    _ANSELH 0189                      i1l1100 16AD                      i1l1101 16BD  
                    i1l1014 13A3                      i1l1102 16C4                      i1l1015 13A4  
                    i1l1103 16CC                      i1l1016 13A4                      i1l1017 13A9  
                    i1l1018 13AB                      i1l1106 13CA                      i1l1107 13CA  
                    i1l1099 1693                      i1l4260 16A1                      i1l4270 16BD  
                    i1l4262 16A4                      i1l4254 1688                      i1l4272 16C4  
                    i1l4264 16AD                      i1l4256 1693                      i1l4266 16B1  
                    i1l4258 169B                      i1l4274 13BE                      i1l4268 16B8  
                    i1l4276 13C2                      i1l4470 13A0                      i1l4278 13C3  
                    i1l4472 13A9                      i1l4474 13AB                      i1l4468 139A  
                    u310_20 13C2                      u310_21 13C1                      _INTCON 000B  
                    u307_20 16A1                      u307_21 16A0                      u308_20 16B1  
                    u309_20 16C3                      u309_21 16C2                   ??_DelayMs 0048  
                    u355_20 13A0                      u355_21 139F                      u356_20 13A8  
                    u356_21 13A7           __end_of_RFID_read 1604                      _TRISD0 0440  
                    _TRISD1 0441          __size_of_ReadStock 0047                      _DelayS 1411  
      __size_of_eeprom_read 0029                 _DisplayAmnt 070A            __end_of_lcd_init 09CF  
               _DisplayRise 0818                      ___wmul 14FE                   ??___awdiv 0053  
                 ??___awmod 004C          __size_of_SendStock 00AC                      _enable 1368  
                 ??___lwdiv 0052                   ??___lwmod 004C                      _lcdcmd 152C  
          __end_of_gsm_init 0E12                      _memcmp 0915            ___awdiv@quotient 0056  
           ___awmod@divisor 0048            __end_of_paramter 0915        __end_of_eeprom_write 15C7  
           ___awmod@counter 004D             _DisplayKerosene 086C                transmit@data 0048  
                 ??_lcddata 004A                      _strcmp 147B                      clrloop 1346  
                 ??_lcdport 0048      gsm_read_line2@rec_data 0073                  _User1Sugar 0034  
                _User2Sugar 0037                  _User3Sugar 003A                __pdataCOMMON 007C  
                 ??_receive 0048                      saved_w 007E                  _SugarArray 0044  
                _SugarStock 0024            __end_of_transmit 1359                   ??_startup 0051  
         __end_ofi1_receive 13AC           DisplaySugar@Sugar 0058             eeprom_read@addr 004B  
            __pcstackCOMMON 0070                __pidataBANK0 1359                __pidataBANK1 13D7  
              ?_softreceive 0070           __end_of_ReadStock 175A             softreceive@Data 004A  
         eeprom_write@value 0058             softreceive@mask 004B           __end_of_SendStock 0C47  
                __pbssBANK0 0020                  __pbssBANK1 00A0                  _card_store 00C3  
        __size_of_lcdstring 002C                   ?_ReadAmnt 0070                     ?_DelayS 0070  
              ?_usartstring 0049                  __pmaintext 0015     __end_of_DisplayKerosene 08C0  
                   ?___wmul 004C                  __pintentry 0004                     ?_enable 0070  
                   ?_lcdcmd 0070                     ?_memcmp 0048                     ?_strcmp 0048  
     __size_of_DisplaySugar 0054       __size_of_DisplayStock 006F          __size_of_uart_init 0016  
                   DelayS@i 004D                   ?_lcd_init 0070     __size_of_gsm_read_line2 0046  
          _DisplayAmnt$1137 005A                     _DelayMs 13F1                  ??_ReadAmnt 0052  
                 ?_gsm_init 0070                   ?_paramter 0070             __size_of_DelayS 0020  
     __size_of_eeprom_write 003B                _DisplaySugar 17AC                _DisplayStock 0A3B  
                   ___awdiv 0B20                     ___awmod 09CF             __size_of___wmul 002E  
                   ___lwdiv 175A                     ___lwmod 16CD   __size_of_LoadStockToArray 01EE  
                 ?_transmit 0070             __size_of_enable 0010             __size_of_lcdcmd 002E  
           __size_of_memcmp 0056           __end_of_lcdstring 14FE                     _lcddata 155A  
           __size_of_strcmp 002B                __size_of_ISR 0019                     _lcdport 1431  
                   _receive 13AC            ___awmod@dividend 004A                     lcdcmd@a 004E  
                   lcdcmd@y 004C                     lcdcmd@z 004D                     _startup 0AAA  
                ??_lcd_init 004F                   DelayS@cnt 004C        end_of_initialization 163F  
                   memcmp@n 004B                     init_ram 138D                  ??_gsm_init 0051  
              _eeprom_write 158C                  ??_paramter 0052           __end_of_uart_init 0818  
                 _RFID_read 15C7                ?_DisplayAmnt 0058                ?_DisplayRise 0058  
          ?_DisplayKerosene 0058             DisplayAmnt@Amnt 0058                __pstringtext 1800  
                ??_transmit 0048                     strcmp@r 004C        __size_of_softreceive 0044  
     _LoadStockToArray$1138 0057               ??_eeprom_read 0048                   i1_receive 139A  
            __end_of_DelayS 1431                  ?_RFID_read 0070             DisplayRise@Rise 0058  
      __size_of_usartstring 002C              __end_of___wmul 152C               __pidataCOMMON 0800  
            __end_of_enable 1378              __end_of_lcdcmd 155A              __end_of_memcmp 096B  
          _delayus_variable 0078              __end_of_strcmp 14A6         start_initialization 1604  
               __end_of_ISR 13D7                  lcdstring@a 004F                   _ReadStock 1713  
            _gsm_read_line2 1687                   _SendStock 0B9B                    ??_DelayS 004B  
                ?i1_receive 0070           __size_of_ReadAmnt 00E2                   _RiseArray 003B  
       DisplayRise@Location 005B                   _RiseStock 0022                    ??___wmul 0050  
       __end_of_eeprom_read 147B                    ??_enable 0048                    ??_lcdcmd 004A  
          _LoadStockToArray 0E12                 __pdataBANK0 0060                 __pdataBANK1 00D2  
                 _User1Rise 0033                   _User2Rise 0036                   _User3Rise 0039  
                  ??_memcmp 004D                    ??_strcmp 004A         DisplayAmnt@Location 005C  
               __pbssCOMMON 0078      __end_of_gsm_read_line2 16CD               __pcstackBANK0 0048  
                ?_ReadStock 0070                  RFID_read@i 004D            eeprom_write@addr 005A  
                  ?_DelayMs 0070           __size_of_lcd_init 0064                  ?_SendStock 0070  
         __size_of_gsm_init 00E9            ___lwdiv@dividend 0050                 ??_RFID_read 004C  
         __size_of_paramter 0055                    ?___awdiv 004F                    ?___awmod 0048  
                 __ptext900 0818                   __ptext901 17AC                   __ptext910 08C0  
                 __ptext902 070A                   __ptext911 1713                   __ptext903 14D2  
                 __ptext920 16CD                   __ptext912 0C47                   __ptext904 096B  
                 __ptext921 175A                   __ptext913 14A6                   __ptext905 0B9B  
                 __ptext930 1431                   __ptext922 14FE                   __ptext914 1643  
                 __ptext906 15C7                   __ptext931 13F1                   __ptext923 0915  
                 __ptext915 1378                   __ptext907 155A                   __ptext932 13BE  
                 __ptext924 158C                   __ptext916 1368                   __ptext908 152C  
                 __ptext933 1687                   __ptext925 147B                   __ptext917 1411  
                 __ptext909 0E12                   __ptext934 139A                   __ptext926 0802  
                 __ptext918 09CF                   __ptext935 0000                   __ptext927 1452  
                 __ptext919 0B20                   __ptext928 134D                   __ptext929 13AC  
                 __ptext896 0AAA                   __ptext897 0A3B                   __ptext898 0D29  
                 __ptext899 086C        __size_of_DisplayAmnt 00F5                    ?___lwdiv 004E  
                  ?___lwmod 0048        __size_of_DisplayRise 0054           __size_of_transmit 000C  
                  ?_lcddata 0070                    ?_lcdport 0070                    ?_receive 0070  
                 _lcdstring 14D2             ?_gsm_read_line2 0070            ___lwdiv@quotient 0053  
                  ?_startup 0070           interrupt_function 0004                   _rfid_flag 03D8  
            ___wmul@product 0050                    DelayMs@i 004A                 ??i1_receive 0070  
               _eeprom_read 1452                   _uart_init 0802                 __stringbase 1812  
         ___wmul@multiplier 004C                  ?_lcdstring 004F                 ??_ReadStock 0052  
             _User1Kerosene 0032                    _ReadAmnt 0C47               _User2Kerosene 0035  
          __size_of_DelayMs 0020               _User3Kerosene 0038                 ??_SendStock 004B  
             usartstring@st 0049                   gsm_init@d 0051        gsm_read_line2@buffer 0072  
                 init_fetch 1389               ??_softreceive 0048                  ?_uart_init 0070  
                  _User1amt 0028                    _User2amt 002A                    _User3amt 002C  
          __size_of___awdiv 007B            __size_of___awmod 006C            __size_of___lwdiv 0052  
          __size_of___lwmod 0046    __size_of_DisplayKerosene 0054            __size_of_lcddata 0032  
          __size_of_lcdport 0021            __size_of_receive 0012             ___lwdiv@divisor 004E  
           ___lwdiv@counter 0055                    _lcd_init 096B            __size_of_startup 0076  
  __end_of_LoadStockToArray 1000                    _gsm_init 0D29               __size_of_main 06F5  
                  _paramter 08C0               ??_usartstring 004B                    clear_ram 1345  
                  _transmit 134D                    lcddata@a 004E                    lcddata@y 004C  
                  lcddata@z 004D                    lcdport@a 0048         __end_of_softreceive 1687  
                DelayMs@cnt 0049                 ??_lcdstring 0051                    memcmp@s1 0048  
                  memcmp@s2 004A                    intlevel1 0000            ___lwmod@dividend 004A  
                 stringcode 180A               ?_DisplaySugar 0058               ?_DisplayStock 0070  
               ??_uart_init 0048         __end_of_usartstring 14D2            ??_gsm_read_line2 0070  
        gsm_read_line2@flag 0071                    strcmp@s1 004D                    strcmp@s2 0048  
           ___lwmod@divisor 0048             ___lwmod@counter 004D                    stringtab 1800  
            _sms_indication 03D9           _SoftWareUart_Init 1378           ??_DisplayKerosene 0059  
      DisplaySugar@Location 005B          ?_SoftWareUart_Init 0070               ?_eeprom_write 0058  
              ?_eeprom_read 0070     DisplayKerosene@Kerosene 0058     DisplayKerosene@Location 005B  
             ??_DisplayAmnt 005A         ??_SoftWareUart_Init 0048               ??_DisplayRise 0059  
            ??_DisplaySugar 0059              ??_DisplayStock 005D  
